
kernel/kernel:     file format elf64-littleriscv


Disassembly of section .text:

0000000080000000 <_entry>:
_entry:
        # set up a stack for C.
        # stack0 is declared in start.c,
        # with a 4096-byte stack per CPU.
        # sp = stack0 + ((hartid + 1) * 4096)
        la sp, stack0
    80000000:	0000b117          	auipc	sp,0xb
    80000004:	9d010113          	addi	sp,sp,-1584 # 8000a9d0 <stack0>
        li a0, 1024*4
    80000008:	00001537          	lui	a0,0x1
        csrr a1, mhartid
    8000000c:	f14025f3          	csrr	a1,mhartid
        addi a1, a1, 1
    80000010:	00158593          	addi	a1,a1,1
        mul a0, a0, a1
    80000014:	02b50533          	mul	a0,a0,a1
        add sp, sp, a0
    80000018:	00a10133          	add	sp,sp,a0
        # jump to start() in start.c
        call start
    8000001c:	04c000ef          	jal	ra,80000068 <start>

0000000080000020 <spin>:
spin:
        j spin
    80000020:	0000006f          	j	80000020 <spin>

0000000080000024 <timerinit>:
}

// ask each hart to generate timer interrupts.
void
timerinit()
{
    80000024:	ff010113          	addi	sp,sp,-16
    80000028:	00813423          	sd	s0,8(sp)
    8000002c:	01010413          	addi	s0,sp,16
#define MIE_STIE (1L << 5)  // supervisor timer
static inline uint64
r_mie()
{
  uint64 x;
  asm volatile("csrr %0, mie" : "=r" (x) );
    80000030:	304027f3          	csrr	a5,mie
  // enable supervisor-mode timer interrupts.
  w_mie(r_mie() | MIE_STIE);
    80000034:	0207e793          	ori	a5,a5,32
}

static inline void 
w_mie(uint64 x)
{
  asm volatile("csrw mie, %0" : : "r" (x));
    80000038:	30479073          	csrw	mie,a5
static inline uint64
r_menvcfg()
{
  uint64 x;
  // asm volatile("csrr %0, menvcfg" : "=r" (x) );
  asm volatile("csrr %0, 0x30a" : "=r" (x) );
    8000003c:	30a027f3          	csrr	a5,0x30a
  
  // enable the sstc extension (i.e. stimecmp).
  w_menvcfg(r_menvcfg() | (1L << 63)); 
    80000040:	fff00713          	li	a4,-1
    80000044:	03f71713          	slli	a4,a4,0x3f
    80000048:	00e7e7b3          	or	a5,a5,a4

static inline void 
w_menvcfg(uint64 x)
{
  // asm volatile("csrw menvcfg, %0" : : "r" (x));
  asm volatile("csrw 0x30a, %0" : : "r" (x));
    8000004c:	30a79073          	csrw	0x30a,a5

static inline uint64
r_mcounteren()
{
  uint64 x;
  asm volatile("csrr %0, mcounteren" : "=r" (x) );
    80000050:	306027f3          	csrr	a5,mcounteren
  
  // allow supervisor to use stimecmp and time.
  w_mcounteren(r_mcounteren() | 2);
    80000054:	0027e793          	ori	a5,a5,2
  asm volatile("csrw mcounteren, %0" : : "r" (x));
    80000058:	30679073          	csrw	mcounteren,a5
  
  // ask for the very first timer interrupt.
//  w_stimecmp(r_time() + 1000000);
}
    8000005c:	00813403          	ld	s0,8(sp)
    80000060:	01010113          	addi	sp,sp,16
    80000064:	00008067          	ret

0000000080000068 <start>:
{
    80000068:	ff010113          	addi	sp,sp,-16
    8000006c:	00113423          	sd	ra,8(sp)
    80000070:	00813023          	sd	s0,0(sp)
    80000074:	01010413          	addi	s0,sp,16
  asm volatile("csrr %0, mstatus" : "=r" (x) );
    80000078:	300027f3          	csrr	a5,mstatus
  x &= ~MSTATUS_MPP_MASK;
    8000007c:	ffffe737          	lui	a4,0xffffe
    80000080:	7ff70713          	addi	a4,a4,2047 # ffffffffffffe7ff <end+0xffffffff7ffdab27>
    80000084:	00e7f7b3          	and	a5,a5,a4
  x |= MSTATUS_MPP_S;
    80000088:	00001737          	lui	a4,0x1
    8000008c:	80070713          	addi	a4,a4,-2048 # 800 <_entry-0x7ffff800>
    80000090:	00e7e7b3          	or	a5,a5,a4
  asm volatile("csrw mstatus, %0" : : "r" (x));
    80000094:	30079073          	csrw	mstatus,a5
  asm volatile("csrw mepc, %0" : : "r" (x));
    80000098:	00001797          	auipc	a5,0x1
    8000009c:	40c78793          	addi	a5,a5,1036 # 800014a4 <main>
    800000a0:	34179073          	csrw	mepc,a5
  asm volatile("csrw satp, %0" : : "r" (x));
    800000a4:	00000793          	li	a5,0
    800000a8:	18079073          	csrw	satp,a5
  asm volatile("csrw medeleg, %0" : : "r" (x));
    800000ac:	000107b7          	lui	a5,0x10
    800000b0:	fff78793          	addi	a5,a5,-1 # ffff <_entry-0x7fff0001>
    800000b4:	30279073          	csrw	medeleg,a5
  asm volatile("csrw mideleg, %0" : : "r" (x));
    800000b8:	30379073          	csrw	mideleg,a5
  asm volatile("csrr %0, sie" : "=r" (x) );
    800000bc:	104027f3          	csrr	a5,sie
  w_sie(r_sie() | SIE_SEIE | SIE_STIE);
    800000c0:	2207e793          	ori	a5,a5,544
  asm volatile("csrw sie, %0" : : "r" (x));
    800000c4:	10479073          	csrw	sie,a5
  asm volatile("csrw pmpaddr0, %0" : : "r" (x));
    800000c8:	fff00793          	li	a5,-1
    800000cc:	00a7d793          	srli	a5,a5,0xa
    800000d0:	3b079073          	csrw	pmpaddr0,a5
  asm volatile("csrw pmpcfg0, %0" : : "r" (x));
    800000d4:	00f00793          	li	a5,15
    800000d8:	3a079073          	csrw	pmpcfg0,a5
  timerinit();
    800000dc:	00000097          	auipc	ra,0x0
    800000e0:	f48080e7          	jalr	-184(ra) # 80000024 <timerinit>
  asm volatile("csrr %0, mhartid" : "=r" (x) );
    800000e4:	f14027f3          	csrr	a5,mhartid
  w_tp(id);
    800000e8:	0007879b          	sext.w	a5,a5
}

static inline void 
w_tp(uint64 x)
{
  asm volatile("mv tp, %0" : : "r" (x));
    800000ec:	00078213          	mv	tp,a5
  asm volatile("mret");
    800000f0:	30200073          	mret
}
    800000f4:	00813083          	ld	ra,8(sp)
    800000f8:	00013403          	ld	s0,0(sp)
    800000fc:	01010113          	addi	sp,sp,16
    80000100:	00008067          	ret

0000000080000104 <consolewrite>:
//
// user write()s to the console go here.
//
int
consolewrite(int user_src, uint64 src, int n)
{
    80000104:	f9010113          	addi	sp,sp,-112
    80000108:	06113423          	sd	ra,104(sp)
    8000010c:	06813023          	sd	s0,96(sp)
    80000110:	04913c23          	sd	s1,88(sp)
    80000114:	05213823          	sd	s2,80(sp)
    80000118:	05313423          	sd	s3,72(sp)
    8000011c:	05413023          	sd	s4,64(sp)
    80000120:	03513c23          	sd	s5,56(sp)
    80000124:	03613823          	sd	s6,48(sp)
    80000128:	03713423          	sd	s7,40(sp)
    8000012c:	03813023          	sd	s8,32(sp)
    80000130:	07010413          	addi	s0,sp,112
  char buf[32];
  int i = 0;

  while(i < n){
    80000134:	06c05463          	blez	a2,8000019c <consolewrite+0x98>
    80000138:	00050a13          	mv	s4,a0
    8000013c:	00058a93          	mv	s5,a1
    80000140:	00060993          	mv	s3,a2
  int i = 0;
    80000144:	00000913          	li	s2,0
    int nn = sizeof(buf);
    if(nn > n - i)
    80000148:	01f00b93          	li	s7,31
    int nn = sizeof(buf);
    8000014c:	02000c13          	li	s8,32
      nn = n - i;
    if(either_copyin(buf, user_src, src+i, nn) == -1)
    80000150:	fff00b13          	li	s6,-1
    80000154:	0380006f          	j	8000018c <consolewrite+0x88>
    80000158:	00048693          	mv	a3,s1
    8000015c:	01590633          	add	a2,s2,s5
    80000160:	000a0593          	mv	a1,s4
    80000164:	f9040513          	addi	a0,s0,-112
    80000168:	00003097          	auipc	ra,0x3
    8000016c:	560080e7          	jalr	1376(ra) # 800036c8 <either_copyin>
    80000170:	03650863          	beq	a0,s6,800001a0 <consolewrite+0x9c>
      break;
    uartwrite(buf, nn);
    80000174:	00048593          	mv	a1,s1
    80000178:	f9040513          	addi	a0,s0,-112
    8000017c:	00001097          	auipc	ra,0x1
    80000180:	9f8080e7          	jalr	-1544(ra) # 80000b74 <uartwrite>
    i += nn;
    80000184:	0124893b          	addw	s2,s1,s2
  while(i < n){
    80000188:	01395c63          	bge	s2,s3,800001a0 <consolewrite+0x9c>
    if(nn > n - i)
    8000018c:	412984bb          	subw	s1,s3,s2
    80000190:	fc9bd4e3          	bge	s7,s1,80000158 <consolewrite+0x54>
    int nn = sizeof(buf);
    80000194:	000c0493          	mv	s1,s8
    80000198:	fc1ff06f          	j	80000158 <consolewrite+0x54>
  int i = 0;
    8000019c:	00000913          	li	s2,0
  }

  return i;
}
    800001a0:	00090513          	mv	a0,s2
    800001a4:	06813083          	ld	ra,104(sp)
    800001a8:	06013403          	ld	s0,96(sp)
    800001ac:	05813483          	ld	s1,88(sp)
    800001b0:	05013903          	ld	s2,80(sp)
    800001b4:	04813983          	ld	s3,72(sp)
    800001b8:	04013a03          	ld	s4,64(sp)
    800001bc:	03813a83          	ld	s5,56(sp)
    800001c0:	03013b03          	ld	s6,48(sp)
    800001c4:	02813b83          	ld	s7,40(sp)
    800001c8:	02013c03          	ld	s8,32(sp)
    800001cc:	07010113          	addi	sp,sp,112
    800001d0:	00008067          	ret

00000000800001d4 <consoleread>:
// user_dist indicates whether dst is a user
// or kernel address.
//
int
consoleread(int user_dst, uint64 dst, int n)
{
    800001d4:	f9010113          	addi	sp,sp,-112
    800001d8:	06113423          	sd	ra,104(sp)
    800001dc:	06813023          	sd	s0,96(sp)
    800001e0:	04913c23          	sd	s1,88(sp)
    800001e4:	05213823          	sd	s2,80(sp)
    800001e8:	05313423          	sd	s3,72(sp)
    800001ec:	05413023          	sd	s4,64(sp)
    800001f0:	03513c23          	sd	s5,56(sp)
    800001f4:	03613823          	sd	s6,48(sp)
    800001f8:	03713423          	sd	s7,40(sp)
    800001fc:	03813023          	sd	s8,32(sp)
    80000200:	01913c23          	sd	s9,24(sp)
    80000204:	01a13823          	sd	s10,16(sp)
    80000208:	07010413          	addi	s0,sp,112
    8000020c:	00050a93          	mv	s5,a0
    80000210:	00058a13          	mv	s4,a1
    80000214:	00060993          	mv	s3,a2
  uint target;
  int c;
  char cbuf;

  target = n;
    80000218:	00060b1b          	sext.w	s6,a2
  acquire(&cons.lock);
    8000021c:	00012517          	auipc	a0,0x12
    80000220:	7b450513          	addi	a0,a0,1972 # 800129d0 <cons>
    80000224:	00001097          	auipc	ra,0x1
    80000228:	e94080e7          	jalr	-364(ra) # 800010b8 <acquire>
  while(n > 0){
    // wait until interrupt handler has put some
    // input into cons.buffer.
    while(cons.r == cons.w){
    8000022c:	00012497          	auipc	s1,0x12
    80000230:	7a448493          	addi	s1,s1,1956 # 800129d0 <cons>
      if(killed(myproc())){
        release(&cons.lock);
        return -1;
      }
      sleep(&cons.r, &cons.lock);
    80000234:	00013917          	auipc	s2,0x13
    80000238:	83490913          	addi	s2,s2,-1996 # 80012a68 <cons+0x98>
    }

    c = cons.buf[cons.r++ % INPUT_BUF_SIZE];

    if(c == C('D')){  // end-of-file
    8000023c:	00400b93          	li	s7,4
      break;
    }

    // copy the input byte to the user-space buffer.
    cbuf = c;
    if(either_copyout(user_dst, dst, &cbuf, 1) == -1)
    80000240:	fff00c13          	li	s8,-1
      break;

    dst++;
    --n;

    if(c == '\n'){
    80000244:	00a00c93          	li	s9,10
  while(n > 0){
    80000248:	09305463          	blez	s3,800002d0 <consoleread+0xfc>
    while(cons.r == cons.w){
    8000024c:	0984a783          	lw	a5,152(s1)
    80000250:	09c4a703          	lw	a4,156(s1)
    80000254:	02f71a63          	bne	a4,a5,80000288 <consoleread+0xb4>
      if(killed(myproc())){
    80000258:	00002097          	auipc	ra,0x2
    8000025c:	490080e7          	jalr	1168(ra) # 800026e8 <myproc>
    80000260:	00003097          	auipc	ra,0x3
    80000264:	1f0080e7          	jalr	496(ra) # 80003450 <killed>
    80000268:	08051063          	bnez	a0,800002e8 <consoleread+0x114>
      sleep(&cons.r, &cons.lock);
    8000026c:	00048593          	mv	a1,s1
    80000270:	00090513          	mv	a0,s2
    80000274:	00003097          	auipc	ra,0x3
    80000278:	e2c080e7          	jalr	-468(ra) # 800030a0 <sleep>
    while(cons.r == cons.w){
    8000027c:	0984a783          	lw	a5,152(s1)
    80000280:	09c4a703          	lw	a4,156(s1)
    80000284:	fcf70ae3          	beq	a4,a5,80000258 <consoleread+0x84>
    c = cons.buf[cons.r++ % INPUT_BUF_SIZE];
    80000288:	0017871b          	addiw	a4,a5,1
    8000028c:	08e4ac23          	sw	a4,152(s1)
    80000290:	07f7f713          	andi	a4,a5,127
    80000294:	00e48733          	add	a4,s1,a4
    80000298:	01874703          	lbu	a4,24(a4)
    8000029c:	00070d1b          	sext.w	s10,a4
    if(c == C('D')){  // end-of-file
    800002a0:	097d0a63          	beq	s10,s7,80000334 <consoleread+0x160>
    cbuf = c;
    800002a4:	f8e40fa3          	sb	a4,-97(s0)
    if(either_copyout(user_dst, dst, &cbuf, 1) == -1)
    800002a8:	00100693          	li	a3,1
    800002ac:	f9f40613          	addi	a2,s0,-97
    800002b0:	000a0593          	mv	a1,s4
    800002b4:	000a8513          	mv	a0,s5
    800002b8:	00003097          	auipc	ra,0x3
    800002bc:	380080e7          	jalr	896(ra) # 80003638 <either_copyout>
    800002c0:	01850863          	beq	a0,s8,800002d0 <consoleread+0xfc>
    dst++;
    800002c4:	001a0a13          	addi	s4,s4,1
    --n;
    800002c8:	fff9899b          	addiw	s3,s3,-1
    if(c == '\n'){
    800002cc:	f79d1ee3          	bne	s10,s9,80000248 <consoleread+0x74>
      // a whole line has arrived, return to
      // the user-level read().
      break;
    }
  }
  release(&cons.lock);
    800002d0:	00012517          	auipc	a0,0x12
    800002d4:	70050513          	addi	a0,a0,1792 # 800129d0 <cons>
    800002d8:	00001097          	auipc	ra,0x1
    800002dc:	ed8080e7          	jalr	-296(ra) # 800011b0 <release>

  return target - n;
    800002e0:	413b053b          	subw	a0,s6,s3
    800002e4:	0180006f          	j	800002fc <consoleread+0x128>
        release(&cons.lock);
    800002e8:	00012517          	auipc	a0,0x12
    800002ec:	6e850513          	addi	a0,a0,1768 # 800129d0 <cons>
    800002f0:	00001097          	auipc	ra,0x1
    800002f4:	ec0080e7          	jalr	-320(ra) # 800011b0 <release>
        return -1;
    800002f8:	fff00513          	li	a0,-1
}
    800002fc:	06813083          	ld	ra,104(sp)
    80000300:	06013403          	ld	s0,96(sp)
    80000304:	05813483          	ld	s1,88(sp)
    80000308:	05013903          	ld	s2,80(sp)
    8000030c:	04813983          	ld	s3,72(sp)
    80000310:	04013a03          	ld	s4,64(sp)
    80000314:	03813a83          	ld	s5,56(sp)
    80000318:	03013b03          	ld	s6,48(sp)
    8000031c:	02813b83          	ld	s7,40(sp)
    80000320:	02013c03          	ld	s8,32(sp)
    80000324:	01813c83          	ld	s9,24(sp)
    80000328:	01013d03          	ld	s10,16(sp)
    8000032c:	07010113          	addi	sp,sp,112
    80000330:	00008067          	ret
      if(n < target){
    80000334:	0009871b          	sext.w	a4,s3
    80000338:	f9677ce3          	bgeu	a4,s6,800002d0 <consoleread+0xfc>
        cons.r--;
    8000033c:	00012717          	auipc	a4,0x12
    80000340:	72f72623          	sw	a5,1836(a4) # 80012a68 <cons+0x98>
    80000344:	f8dff06f          	j	800002d0 <consoleread+0xfc>

0000000080000348 <consputc>:
{
    80000348:	ff010113          	addi	sp,sp,-16
    8000034c:	00113423          	sd	ra,8(sp)
    80000350:	00813023          	sd	s0,0(sp)
    80000354:	01010413          	addi	s0,sp,16
  if(c == BACKSPACE){
    80000358:	10000793          	li	a5,256
    8000035c:	00f50e63          	beq	a0,a5,80000378 <consputc+0x30>
    uartputc_sync(c);
    80000360:	00001097          	auipc	ra,0x1
    80000364:	90c080e7          	jalr	-1780(ra) # 80000c6c <uartputc_sync>
}
    80000368:	00813083          	ld	ra,8(sp)
    8000036c:	00013403          	ld	s0,0(sp)
    80000370:	01010113          	addi	sp,sp,16
    80000374:	00008067          	ret
    uartputc_sync('\b'); uartputc_sync(' '); uartputc_sync('\b');
    80000378:	00800513          	li	a0,8
    8000037c:	00001097          	auipc	ra,0x1
    80000380:	8f0080e7          	jalr	-1808(ra) # 80000c6c <uartputc_sync>
    80000384:	02000513          	li	a0,32
    80000388:	00001097          	auipc	ra,0x1
    8000038c:	8e4080e7          	jalr	-1820(ra) # 80000c6c <uartputc_sync>
    80000390:	00800513          	li	a0,8
    80000394:	00001097          	auipc	ra,0x1
    80000398:	8d8080e7          	jalr	-1832(ra) # 80000c6c <uartputc_sync>
    8000039c:	fcdff06f          	j	80000368 <consputc+0x20>

00000000800003a0 <consoleintr>:
// do erase/kill processing, append to cons.buf,
// wake up consoleread() if a whole line has arrived.
//
void
consoleintr(int c)
{
    800003a0:	fe010113          	addi	sp,sp,-32
    800003a4:	00113c23          	sd	ra,24(sp)
    800003a8:	00813823          	sd	s0,16(sp)
    800003ac:	00913423          	sd	s1,8(sp)
    800003b0:	01213023          	sd	s2,0(sp)
    800003b4:	02010413          	addi	s0,sp,32
    800003b8:	00050493          	mv	s1,a0
  acquire(&cons.lock);
    800003bc:	00012517          	auipc	a0,0x12
    800003c0:	61450513          	addi	a0,a0,1556 # 800129d0 <cons>
    800003c4:	00001097          	auipc	ra,0x1
    800003c8:	cf4080e7          	jalr	-780(ra) # 800010b8 <acquire>

  switch(c){
    800003cc:	01500793          	li	a5,21
    800003d0:	0cf48663          	beq	s1,a5,8000049c <consoleintr+0xfc>
    800003d4:	0497c263          	blt	a5,s1,80000418 <consoleintr+0x78>
    800003d8:	00800793          	li	a5,8
    800003dc:	10f48a63          	beq	s1,a5,800004f0 <consoleintr+0x150>
    800003e0:	01000793          	li	a5,16
    800003e4:	12f49e63          	bne	s1,a5,80000520 <consoleintr+0x180>
  case C('P'):  // Print process list.
    procdump();
    800003e8:	00003097          	auipc	ra,0x3
    800003ec:	370080e7          	jalr	880(ra) # 80003758 <procdump>
      }
    }
    break;
  }
  
  release(&cons.lock);
    800003f0:	00012517          	auipc	a0,0x12
    800003f4:	5e050513          	addi	a0,a0,1504 # 800129d0 <cons>
    800003f8:	00001097          	auipc	ra,0x1
    800003fc:	db8080e7          	jalr	-584(ra) # 800011b0 <release>
}
    80000400:	01813083          	ld	ra,24(sp)
    80000404:	01013403          	ld	s0,16(sp)
    80000408:	00813483          	ld	s1,8(sp)
    8000040c:	00013903          	ld	s2,0(sp)
    80000410:	02010113          	addi	sp,sp,32
    80000414:	00008067          	ret
  switch(c){
    80000418:	07f00793          	li	a5,127
    8000041c:	0cf48a63          	beq	s1,a5,800004f0 <consoleintr+0x150>
    if(c != 0 && cons.e-cons.r < INPUT_BUF_SIZE){
    80000420:	00012717          	auipc	a4,0x12
    80000424:	5b070713          	addi	a4,a4,1456 # 800129d0 <cons>
    80000428:	0a072783          	lw	a5,160(a4)
    8000042c:	09872703          	lw	a4,152(a4)
    80000430:	40e787bb          	subw	a5,a5,a4
    80000434:	07f00713          	li	a4,127
    80000438:	faf76ce3          	bltu	a4,a5,800003f0 <consoleintr+0x50>
      c = (c == '\r') ? '\n' : c;
    8000043c:	00d00793          	li	a5,13
    80000440:	0ef48463          	beq	s1,a5,80000528 <consoleintr+0x188>
      consputc(c);
    80000444:	00048513          	mv	a0,s1
    80000448:	00000097          	auipc	ra,0x0
    8000044c:	f00080e7          	jalr	-256(ra) # 80000348 <consputc>
      cons.buf[cons.e++ % INPUT_BUF_SIZE] = c;
    80000450:	00012797          	auipc	a5,0x12
    80000454:	58078793          	addi	a5,a5,1408 # 800129d0 <cons>
    80000458:	0a07a683          	lw	a3,160(a5)
    8000045c:	0016871b          	addiw	a4,a3,1
    80000460:	0007061b          	sext.w	a2,a4
    80000464:	0ae7a023          	sw	a4,160(a5)
    80000468:	07f6f693          	andi	a3,a3,127
    8000046c:	00d787b3          	add	a5,a5,a3
    80000470:	00978c23          	sb	s1,24(a5)
      if(c == '\n' || c == C('D') || cons.e-cons.r == INPUT_BUF_SIZE){
    80000474:	00a00793          	li	a5,10
    80000478:	0ef48263          	beq	s1,a5,8000055c <consoleintr+0x1bc>
    8000047c:	00400793          	li	a5,4
    80000480:	0cf48e63          	beq	s1,a5,8000055c <consoleintr+0x1bc>
    80000484:	00012797          	auipc	a5,0x12
    80000488:	5e47a783          	lw	a5,1508(a5) # 80012a68 <cons+0x98>
    8000048c:	40f7073b          	subw	a4,a4,a5
    80000490:	08000793          	li	a5,128
    80000494:	f4f71ee3          	bne	a4,a5,800003f0 <consoleintr+0x50>
    80000498:	0c40006f          	j	8000055c <consoleintr+0x1bc>
    while(cons.e != cons.w &&
    8000049c:	00012717          	auipc	a4,0x12
    800004a0:	53470713          	addi	a4,a4,1332 # 800129d0 <cons>
    800004a4:	0a072783          	lw	a5,160(a4)
    800004a8:	09c72703          	lw	a4,156(a4)
          cons.buf[(cons.e-1) % INPUT_BUF_SIZE] != '\n'){
    800004ac:	00012497          	auipc	s1,0x12
    800004b0:	52448493          	addi	s1,s1,1316 # 800129d0 <cons>
    while(cons.e != cons.w &&
    800004b4:	00a00913          	li	s2,10
    800004b8:	f2f70ce3          	beq	a4,a5,800003f0 <consoleintr+0x50>
          cons.buf[(cons.e-1) % INPUT_BUF_SIZE] != '\n'){
    800004bc:	fff7879b          	addiw	a5,a5,-1
    800004c0:	07f7f713          	andi	a4,a5,127
    800004c4:	00e48733          	add	a4,s1,a4
    while(cons.e != cons.w &&
    800004c8:	01874703          	lbu	a4,24(a4)
    800004cc:	f32702e3          	beq	a4,s2,800003f0 <consoleintr+0x50>
      cons.e--;
    800004d0:	0af4a023          	sw	a5,160(s1)
      consputc(BACKSPACE);
    800004d4:	10000513          	li	a0,256
    800004d8:	00000097          	auipc	ra,0x0
    800004dc:	e70080e7          	jalr	-400(ra) # 80000348 <consputc>
    while(cons.e != cons.w &&
    800004e0:	0a04a783          	lw	a5,160(s1)
    800004e4:	09c4a703          	lw	a4,156(s1)
    800004e8:	fcf71ae3          	bne	a4,a5,800004bc <consoleintr+0x11c>
    800004ec:	f05ff06f          	j	800003f0 <consoleintr+0x50>
    if(cons.e != cons.w){
    800004f0:	00012717          	auipc	a4,0x12
    800004f4:	4e070713          	addi	a4,a4,1248 # 800129d0 <cons>
    800004f8:	0a072783          	lw	a5,160(a4)
    800004fc:	09c72703          	lw	a4,156(a4)
    80000500:	eef708e3          	beq	a4,a5,800003f0 <consoleintr+0x50>
      cons.e--;
    80000504:	fff7879b          	addiw	a5,a5,-1
    80000508:	00012717          	auipc	a4,0x12
    8000050c:	56f72423          	sw	a5,1384(a4) # 80012a70 <cons+0xa0>
      consputc(BACKSPACE);
    80000510:	10000513          	li	a0,256
    80000514:	00000097          	auipc	ra,0x0
    80000518:	e34080e7          	jalr	-460(ra) # 80000348 <consputc>
    8000051c:	ed5ff06f          	j	800003f0 <consoleintr+0x50>
    if(c != 0 && cons.e-cons.r < INPUT_BUF_SIZE){
    80000520:	ec0488e3          	beqz	s1,800003f0 <consoleintr+0x50>
    80000524:	efdff06f          	j	80000420 <consoleintr+0x80>
      consputc(c);
    80000528:	00a00513          	li	a0,10
    8000052c:	00000097          	auipc	ra,0x0
    80000530:	e1c080e7          	jalr	-484(ra) # 80000348 <consputc>
      cons.buf[cons.e++ % INPUT_BUF_SIZE] = c;
    80000534:	00012797          	auipc	a5,0x12
    80000538:	49c78793          	addi	a5,a5,1180 # 800129d0 <cons>
    8000053c:	0a07a703          	lw	a4,160(a5)
    80000540:	0017069b          	addiw	a3,a4,1
    80000544:	0006861b          	sext.w	a2,a3
    80000548:	0ad7a023          	sw	a3,160(a5)
    8000054c:	07f77713          	andi	a4,a4,127
    80000550:	00e787b3          	add	a5,a5,a4
    80000554:	00a00713          	li	a4,10
    80000558:	00e78c23          	sb	a4,24(a5)
        cons.w = cons.e;
    8000055c:	00012797          	auipc	a5,0x12
    80000560:	50c7a823          	sw	a2,1296(a5) # 80012a6c <cons+0x9c>
        wakeup(&cons.r);
    80000564:	00012517          	auipc	a0,0x12
    80000568:	50450513          	addi	a0,a0,1284 # 80012a68 <cons+0x98>
    8000056c:	00003097          	auipc	ra,0x3
    80000570:	bc4080e7          	jalr	-1084(ra) # 80003130 <wakeup>
    80000574:	e7dff06f          	j	800003f0 <consoleintr+0x50>

0000000080000578 <consoleinit>:

void
consoleinit(void)
{
    80000578:	ff010113          	addi	sp,sp,-16
    8000057c:	00113423          	sd	ra,8(sp)
    80000580:	00813023          	sd	s0,0(sp)
    80000584:	01010413          	addi	s0,sp,16
  initlock(&cons.lock, "cons");
    80000588:	0000a597          	auipc	a1,0xa
    8000058c:	a8858593          	addi	a1,a1,-1400 # 8000a010 <etext+0x10>
    80000590:	00012517          	auipc	a0,0x12
    80000594:	44050513          	addi	a0,a0,1088 # 800129d0 <cons>
    80000598:	00001097          	auipc	ra,0x1
    8000059c:	a3c080e7          	jalr	-1476(ra) # 80000fd4 <initlock>

  uartinit();
    800005a0:	00000097          	auipc	ra,0x0
    800005a4:	570080e7          	jalr	1392(ra) # 80000b10 <uartinit>

  // connect read and write system calls
  // to consoleread and consolewrite.
  devsw[CONSOLE].read = consoleread;
    800005a8:	00022797          	auipc	a5,0x22
    800005ac:	59878793          	addi	a5,a5,1432 # 80022b40 <devsw>
    800005b0:	00000717          	auipc	a4,0x0
    800005b4:	c2470713          	addi	a4,a4,-988 # 800001d4 <consoleread>
    800005b8:	00e7b823          	sd	a4,16(a5)
  devsw[CONSOLE].write = consolewrite;
    800005bc:	00000717          	auipc	a4,0x0
    800005c0:	b4870713          	addi	a4,a4,-1208 # 80000104 <consolewrite>
    800005c4:	00e7bc23          	sd	a4,24(a5)
}
    800005c8:	00813083          	ld	ra,8(sp)
    800005cc:	00013403          	ld	s0,0(sp)
    800005d0:	01010113          	addi	sp,sp,16
    800005d4:	00008067          	ret

00000000800005d8 <printint>:

static char digits[] = "0123456789abcdef";

static void
printint(long long xx, int base, int sign)
{
    800005d8:	fc010113          	addi	sp,sp,-64
    800005dc:	02113c23          	sd	ra,56(sp)
    800005e0:	02813823          	sd	s0,48(sp)
    800005e4:	02913423          	sd	s1,40(sp)
    800005e8:	03213023          	sd	s2,32(sp)
    800005ec:	04010413          	addi	s0,sp,64
  char buf[20];
  int i;
  unsigned long long x;

  if(sign && (sign = (xx < 0)))
    800005f0:	00060463          	beqz	a2,800005f8 <printint+0x20>
    800005f4:	0a054463          	bltz	a0,8000069c <printint+0xc4>
    x = -xx;
  else
    x = xx;
    800005f8:	00000893          	li	a7,0
    800005fc:	fc840693          	addi	a3,s0,-56

  i = 0;
    80000600:	00000793          	li	a5,0
  do {
    buf[i++] = digits[x % base];
    80000604:	0000a617          	auipc	a2,0xa
    80000608:	a3460613          	addi	a2,a2,-1484 # 8000a038 <digits>
    8000060c:	00078813          	mv	a6,a5
    80000610:	0017879b          	addiw	a5,a5,1
    80000614:	02b57733          	remu	a4,a0,a1
    80000618:	00e60733          	add	a4,a2,a4
    8000061c:	00074703          	lbu	a4,0(a4)
    80000620:	00e68023          	sb	a4,0(a3)
  } while((x /= base) != 0);
    80000624:	00050713          	mv	a4,a0
    80000628:	02b55533          	divu	a0,a0,a1
    8000062c:	00168693          	addi	a3,a3,1
    80000630:	fcb77ee3          	bgeu	a4,a1,8000060c <printint+0x34>

  if(sign)
    80000634:	00088c63          	beqz	a7,8000064c <printint+0x74>
    buf[i++] = '-';
    80000638:	fe078793          	addi	a5,a5,-32
    8000063c:	008787b3          	add	a5,a5,s0
    80000640:	02d00713          	li	a4,45
    80000644:	fee78423          	sb	a4,-24(a5)
    80000648:	0028079b          	addiw	a5,a6,2

  while(--i >= 0)
    8000064c:	02f05c63          	blez	a5,80000684 <printint+0xac>
    80000650:	fc840713          	addi	a4,s0,-56
    80000654:	00f704b3          	add	s1,a4,a5
    80000658:	fff70913          	addi	s2,a4,-1
    8000065c:	00f90933          	add	s2,s2,a5
    80000660:	fff7879b          	addiw	a5,a5,-1
    80000664:	02079793          	slli	a5,a5,0x20
    80000668:	0207d793          	srli	a5,a5,0x20
    8000066c:	40f90933          	sub	s2,s2,a5
    consputc(buf[i]);
    80000670:	fff4c503          	lbu	a0,-1(s1)
    80000674:	00000097          	auipc	ra,0x0
    80000678:	cd4080e7          	jalr	-812(ra) # 80000348 <consputc>
  while(--i >= 0)
    8000067c:	fff48493          	addi	s1,s1,-1
    80000680:	ff2498e3          	bne	s1,s2,80000670 <printint+0x98>
}
    80000684:	03813083          	ld	ra,56(sp)
    80000688:	03013403          	ld	s0,48(sp)
    8000068c:	02813483          	ld	s1,40(sp)
    80000690:	02013903          	ld	s2,32(sp)
    80000694:	04010113          	addi	sp,sp,64
    80000698:	00008067          	ret
    x = -xx;
    8000069c:	40a00533          	neg	a0,a0
  if(sign && (sign = (xx < 0)))
    800006a0:	00100893          	li	a7,1
    x = -xx;
    800006a4:	f59ff06f          	j	800005fc <printint+0x24>

00000000800006a8 <printf>:
}

// Print to the console.
int
printf(char *fmt, ...)
{
    800006a8:	f4010113          	addi	sp,sp,-192
    800006ac:	06113c23          	sd	ra,120(sp)
    800006b0:	06813823          	sd	s0,112(sp)
    800006b4:	06913423          	sd	s1,104(sp)
    800006b8:	07213023          	sd	s2,96(sp)
    800006bc:	05313c23          	sd	s3,88(sp)
    800006c0:	05413823          	sd	s4,80(sp)
    800006c4:	05513423          	sd	s5,72(sp)
    800006c8:	05613023          	sd	s6,64(sp)
    800006cc:	03713c23          	sd	s7,56(sp)
    800006d0:	03813823          	sd	s8,48(sp)
    800006d4:	03913423          	sd	s9,40(sp)
    800006d8:	03a13023          	sd	s10,32(sp)
    800006dc:	01b13c23          	sd	s11,24(sp)
    800006e0:	08010413          	addi	s0,sp,128
    800006e4:	00050a13          	mv	s4,a0
    800006e8:	00b43423          	sd	a1,8(s0)
    800006ec:	00c43823          	sd	a2,16(s0)
    800006f0:	00d43c23          	sd	a3,24(s0)
    800006f4:	02e43023          	sd	a4,32(s0)
    800006f8:	02f43423          	sd	a5,40(s0)
    800006fc:	03043823          	sd	a6,48(s0)
    80000700:	03143c23          	sd	a7,56(s0)
  va_list ap;
  int i, cx, c0, c1, c2;
  char *s;

  if(panicking == 0)
    80000704:	0000a797          	auipc	a5,0xa
    80000708:	2a07a783          	lw	a5,672(a5) # 8000a9a4 <panicking>
    8000070c:	02078e63          	beqz	a5,80000748 <printf+0xa0>
    acquire(&pr.lock);

  va_start(ap, fmt);
    80000710:	00840793          	addi	a5,s0,8
    80000714:	f8f43423          	sd	a5,-120(s0)
  for(i = 0; (cx = fmt[i] & 0xff) != 0; i++){
    80000718:	000a4503          	lbu	a0,0(s4)
    8000071c:	30050263          	beqz	a0,80000a20 <printf+0x378>
    80000720:	00000993          	li	s3,0
    if(cx != '%'){
    80000724:	02500a93          	li	s5,37
    i++;
    c0 = fmt[i+0] & 0xff;
    c1 = c2 = 0;
    if(c0) c1 = fmt[i+1] & 0xff;
    if(c1) c2 = fmt[i+2] & 0xff;
    if(c0 == 'd'){
    80000728:	06400b13          	li	s6,100
      printint(va_arg(ap, int), 10, 1);
    } else if(c0 == 'l' && c1 == 'd'){
    8000072c:	06c00c13          	li	s8,108
      printint(va_arg(ap, uint64), 10, 1);
      i += 1;
    } else if(c0 == 'l' && c1 == 'l' && c2 == 'd'){
      printint(va_arg(ap, uint64), 10, 1);
      i += 2;
    } else if(c0 == 'u'){
    80000730:	07500c93          	li	s9,117
      printint(va_arg(ap, uint64), 10, 0);
      i += 1;
    } else if(c0 == 'l' && c1 == 'l' && c2 == 'u'){
      printint(va_arg(ap, uint64), 10, 0);
      i += 2;
    } else if(c0 == 'x'){
    80000734:	07800d13          	li	s10,120
      printint(va_arg(ap, uint64), 16, 0);
      i += 1;
    } else if(c0 == 'l' && c1 == 'l' && c2 == 'x'){
      printint(va_arg(ap, uint64), 16, 0);
      i += 2;
    } else if(c0 == 'p'){
    80000738:	07000d93          	li	s11,112
    consputc(digits[x >> (sizeof(uint64) * 8 - 4)]);
    8000073c:	0000ab97          	auipc	s7,0xa
    80000740:	8fcb8b93          	addi	s7,s7,-1796 # 8000a038 <digits>
    80000744:	0340006f          	j	80000778 <printf+0xd0>
    acquire(&pr.lock);
    80000748:	00012517          	auipc	a0,0x12
    8000074c:	33050513          	addi	a0,a0,816 # 80012a78 <pr>
    80000750:	00001097          	auipc	ra,0x1
    80000754:	968080e7          	jalr	-1688(ra) # 800010b8 <acquire>
    80000758:	fb9ff06f          	j	80000710 <printf+0x68>
      consputc(cx);
    8000075c:	00000097          	auipc	ra,0x0
    80000760:	bec080e7          	jalr	-1044(ra) # 80000348 <consputc>
      continue;
    80000764:	00098493          	mv	s1,s3
  for(i = 0; (cx = fmt[i] & 0xff) != 0; i++){
    80000768:	0014899b          	addiw	s3,s1,1
    8000076c:	013a07b3          	add	a5,s4,s3
    80000770:	0007c503          	lbu	a0,0(a5)
    80000774:	2a050663          	beqz	a0,80000a20 <printf+0x378>
    if(cx != '%'){
    80000778:	ff5512e3          	bne	a0,s5,8000075c <printf+0xb4>
    i++;
    8000077c:	0019849b          	addiw	s1,s3,1
    c0 = fmt[i+0] & 0xff;
    80000780:	009a07b3          	add	a5,s4,s1
    80000784:	0007c903          	lbu	s2,0(a5)
    if(c0) c1 = fmt[i+1] & 0xff;
    80000788:	28090c63          	beqz	s2,80000a20 <printf+0x378>
    8000078c:	0017c783          	lbu	a5,1(a5)
    c1 = c2 = 0;
    80000790:	00078693          	mv	a3,a5
    if(c1) c2 = fmt[i+2] & 0xff;
    80000794:	00078663          	beqz	a5,800007a0 <printf+0xf8>
    80000798:	009a0733          	add	a4,s4,s1
    8000079c:	00274683          	lbu	a3,2(a4)
    if(c0 == 'd'){
    800007a0:	03690c63          	beq	s2,s6,800007d8 <printf+0x130>
    } else if(c0 == 'l' && c1 == 'd'){
    800007a4:	05890c63          	beq	s2,s8,800007fc <printf+0x154>
    } else if(c0 == 'u'){
    800007a8:	11990463          	beq	s2,s9,800008b0 <printf+0x208>
    } else if(c0 == 'x'){
    800007ac:	17a90c63          	beq	s2,s10,80000924 <printf+0x27c>
    } else if(c0 == 'p'){
    800007b0:	1db90063          	beq	s2,s11,80000970 <printf+0x2c8>
      printptr(va_arg(ap, uint64));
    } else if(c0 == 'c'){
    800007b4:	06300793          	li	a5,99
    800007b8:	20f90463          	beq	s2,a5,800009c0 <printf+0x318>
      consputc(va_arg(ap, uint));
    } else if(c0 == 's'){
    800007bc:	07300793          	li	a5,115
    800007c0:	20f90e63          	beq	s2,a5,800009dc <printf+0x334>
      if((s = va_arg(ap, char*)) == 0)
        s = "(null)";
      for(; *s; s++)
        consputc(*s);
    } else if(c0 == '%'){
    800007c4:	05591663          	bne	s2,s5,80000810 <printf+0x168>
      consputc('%');
    800007c8:	000a8513          	mv	a0,s5
    800007cc:	00000097          	auipc	ra,0x0
    800007d0:	b7c080e7          	jalr	-1156(ra) # 80000348 <consputc>
    800007d4:	f95ff06f          	j	80000768 <printf+0xc0>
      printint(va_arg(ap, int), 10, 1);
    800007d8:	f8843783          	ld	a5,-120(s0)
    800007dc:	00878713          	addi	a4,a5,8
    800007e0:	f8e43423          	sd	a4,-120(s0)
    800007e4:	00100613          	li	a2,1
    800007e8:	00a00593          	li	a1,10
    800007ec:	0007a503          	lw	a0,0(a5)
    800007f0:	00000097          	auipc	ra,0x0
    800007f4:	de8080e7          	jalr	-536(ra) # 800005d8 <printint>
    800007f8:	f71ff06f          	j	80000768 <printf+0xc0>
    } else if(c0 == 'l' && c1 == 'd'){
    800007fc:	03678863          	beq	a5,s6,8000082c <printf+0x184>
    } else if(c0 == 'l' && c1 == 'l' && c2 == 'd'){
    80000800:	05878a63          	beq	a5,s8,80000854 <printf+0x1ac>
    } else if(c0 == 'l' && c1 == 'u'){
    80000804:	0d978863          	beq	a5,s9,800008d4 <printf+0x22c>
    } else if(c0 == 'l' && c1 == 'l' && c2 == 'u'){
    80000808:	05878863          	beq	a5,s8,80000858 <printf+0x1b0>
    } else if(c0 == 'l' && c1 == 'x'){
    8000080c:	13a78e63          	beq	a5,s10,80000948 <printf+0x2a0>
    } else if(c0 == 0){
      break;
    } else {
      // Print unknown % sequence to draw attention.
      consputc('%');
    80000810:	000a8513          	mv	a0,s5
    80000814:	00000097          	auipc	ra,0x0
    80000818:	b34080e7          	jalr	-1228(ra) # 80000348 <consputc>
      consputc(c0);
    8000081c:	00090513          	mv	a0,s2
    80000820:	00000097          	auipc	ra,0x0
    80000824:	b28080e7          	jalr	-1240(ra) # 80000348 <consputc>
    80000828:	f41ff06f          	j	80000768 <printf+0xc0>
      printint(va_arg(ap, uint64), 10, 1);
    8000082c:	f8843783          	ld	a5,-120(s0)
    80000830:	00878713          	addi	a4,a5,8
    80000834:	f8e43423          	sd	a4,-120(s0)
    80000838:	00100613          	li	a2,1
    8000083c:	00a00593          	li	a1,10
    80000840:	0007b503          	ld	a0,0(a5)
    80000844:	00000097          	auipc	ra,0x0
    80000848:	d94080e7          	jalr	-620(ra) # 800005d8 <printint>
      i += 1;
    8000084c:	0029849b          	addiw	s1,s3,2
    80000850:	f19ff06f          	j	80000768 <printf+0xc0>
    } else if(c0 == 'l' && c1 == 'l' && c2 == 'd'){
    80000854:	03668a63          	beq	a3,s6,80000888 <printf+0x1e0>
    } else if(c0 == 'l' && c1 == 'l' && c2 == 'u'){
    80000858:	0b968263          	beq	a3,s9,800008fc <printf+0x254>
    } else if(c0 == 'l' && c1 == 'l' && c2 == 'x'){
    8000085c:	fba69ae3          	bne	a3,s10,80000810 <printf+0x168>
      printint(va_arg(ap, uint64), 16, 0);
    80000860:	f8843783          	ld	a5,-120(s0)
    80000864:	00878713          	addi	a4,a5,8
    80000868:	f8e43423          	sd	a4,-120(s0)
    8000086c:	00000613          	li	a2,0
    80000870:	01000593          	li	a1,16
    80000874:	0007b503          	ld	a0,0(a5)
    80000878:	00000097          	auipc	ra,0x0
    8000087c:	d60080e7          	jalr	-672(ra) # 800005d8 <printint>
      i += 2;
    80000880:	0039849b          	addiw	s1,s3,3
    80000884:	ee5ff06f          	j	80000768 <printf+0xc0>
      printint(va_arg(ap, uint64), 10, 1);
    80000888:	f8843783          	ld	a5,-120(s0)
    8000088c:	00878713          	addi	a4,a5,8
    80000890:	f8e43423          	sd	a4,-120(s0)
    80000894:	00100613          	li	a2,1
    80000898:	00a00593          	li	a1,10
    8000089c:	0007b503          	ld	a0,0(a5)
    800008a0:	00000097          	auipc	ra,0x0
    800008a4:	d38080e7          	jalr	-712(ra) # 800005d8 <printint>
      i += 2;
    800008a8:	0039849b          	addiw	s1,s3,3
    800008ac:	ebdff06f          	j	80000768 <printf+0xc0>
      printint(va_arg(ap, uint32), 10, 0);
    800008b0:	f8843783          	ld	a5,-120(s0)
    800008b4:	00878713          	addi	a4,a5,8
    800008b8:	f8e43423          	sd	a4,-120(s0)
    800008bc:	00000613          	li	a2,0
    800008c0:	00a00593          	li	a1,10
    800008c4:	0007e503          	lwu	a0,0(a5)
    800008c8:	00000097          	auipc	ra,0x0
    800008cc:	d10080e7          	jalr	-752(ra) # 800005d8 <printint>
    800008d0:	e99ff06f          	j	80000768 <printf+0xc0>
      printint(va_arg(ap, uint64), 10, 0);
    800008d4:	f8843783          	ld	a5,-120(s0)
    800008d8:	00878713          	addi	a4,a5,8
    800008dc:	f8e43423          	sd	a4,-120(s0)
    800008e0:	00000613          	li	a2,0
    800008e4:	00a00593          	li	a1,10
    800008e8:	0007b503          	ld	a0,0(a5)
    800008ec:	00000097          	auipc	ra,0x0
    800008f0:	cec080e7          	jalr	-788(ra) # 800005d8 <printint>
      i += 1;
    800008f4:	0029849b          	addiw	s1,s3,2
    800008f8:	e71ff06f          	j	80000768 <printf+0xc0>
      printint(va_arg(ap, uint64), 10, 0);
    800008fc:	f8843783          	ld	a5,-120(s0)
    80000900:	00878713          	addi	a4,a5,8
    80000904:	f8e43423          	sd	a4,-120(s0)
    80000908:	00000613          	li	a2,0
    8000090c:	00a00593          	li	a1,10
    80000910:	0007b503          	ld	a0,0(a5)
    80000914:	00000097          	auipc	ra,0x0
    80000918:	cc4080e7          	jalr	-828(ra) # 800005d8 <printint>
      i += 2;
    8000091c:	0039849b          	addiw	s1,s3,3
    80000920:	e49ff06f          	j	80000768 <printf+0xc0>
      printint(va_arg(ap, uint32), 16, 0);
    80000924:	f8843783          	ld	a5,-120(s0)
    80000928:	00878713          	addi	a4,a5,8
    8000092c:	f8e43423          	sd	a4,-120(s0)
    80000930:	00000613          	li	a2,0
    80000934:	01000593          	li	a1,16
    80000938:	0007e503          	lwu	a0,0(a5)
    8000093c:	00000097          	auipc	ra,0x0
    80000940:	c9c080e7          	jalr	-868(ra) # 800005d8 <printint>
    80000944:	e25ff06f          	j	80000768 <printf+0xc0>
      printint(va_arg(ap, uint64), 16, 0);
    80000948:	f8843783          	ld	a5,-120(s0)
    8000094c:	00878713          	addi	a4,a5,8
    80000950:	f8e43423          	sd	a4,-120(s0)
    80000954:	00000613          	li	a2,0
    80000958:	01000593          	li	a1,16
    8000095c:	0007b503          	ld	a0,0(a5)
    80000960:	00000097          	auipc	ra,0x0
    80000964:	c78080e7          	jalr	-904(ra) # 800005d8 <printint>
      i += 1;
    80000968:	0029849b          	addiw	s1,s3,2
    8000096c:	dfdff06f          	j	80000768 <printf+0xc0>
      printptr(va_arg(ap, uint64));
    80000970:	f8843783          	ld	a5,-120(s0)
    80000974:	00878713          	addi	a4,a5,8
    80000978:	f8e43423          	sd	a4,-120(s0)
    8000097c:	0007b983          	ld	s3,0(a5)
  consputc('0');
    80000980:	03000513          	li	a0,48
    80000984:	00000097          	auipc	ra,0x0
    80000988:	9c4080e7          	jalr	-1596(ra) # 80000348 <consputc>
  consputc('x');
    8000098c:	000d0513          	mv	a0,s10
    80000990:	00000097          	auipc	ra,0x0
    80000994:	9b8080e7          	jalr	-1608(ra) # 80000348 <consputc>
    80000998:	01000913          	li	s2,16
    consputc(digits[x >> (sizeof(uint64) * 8 - 4)]);
    8000099c:	03c9d793          	srli	a5,s3,0x3c
    800009a0:	00fb87b3          	add	a5,s7,a5
    800009a4:	0007c503          	lbu	a0,0(a5)
    800009a8:	00000097          	auipc	ra,0x0
    800009ac:	9a0080e7          	jalr	-1632(ra) # 80000348 <consputc>
  for (i = 0; i < (sizeof(uint64) * 2); i++, x <<= 4)
    800009b0:	00499993          	slli	s3,s3,0x4
    800009b4:	fff9091b          	addiw	s2,s2,-1
    800009b8:	fe0912e3          	bnez	s2,8000099c <printf+0x2f4>
    800009bc:	dadff06f          	j	80000768 <printf+0xc0>
      consputc(va_arg(ap, uint));
    800009c0:	f8843783          	ld	a5,-120(s0)
    800009c4:	00878713          	addi	a4,a5,8
    800009c8:	f8e43423          	sd	a4,-120(s0)
    800009cc:	0007a503          	lw	a0,0(a5)
    800009d0:	00000097          	auipc	ra,0x0
    800009d4:	978080e7          	jalr	-1672(ra) # 80000348 <consputc>
    800009d8:	d91ff06f          	j	80000768 <printf+0xc0>
      if((s = va_arg(ap, char*)) == 0)
    800009dc:	f8843783          	ld	a5,-120(s0)
    800009e0:	00878713          	addi	a4,a5,8
    800009e4:	f8e43423          	sd	a4,-120(s0)
    800009e8:	0007b903          	ld	s2,0(a5)
    800009ec:	02090263          	beqz	s2,80000a10 <printf+0x368>
      for(; *s; s++)
    800009f0:	00094503          	lbu	a0,0(s2)
    800009f4:	d6050ae3          	beqz	a0,80000768 <printf+0xc0>
        consputc(*s);
    800009f8:	00000097          	auipc	ra,0x0
    800009fc:	950080e7          	jalr	-1712(ra) # 80000348 <consputc>
      for(; *s; s++)
    80000a00:	00190913          	addi	s2,s2,1
    80000a04:	00094503          	lbu	a0,0(s2)
    80000a08:	fe0518e3          	bnez	a0,800009f8 <printf+0x350>
    80000a0c:	d5dff06f          	j	80000768 <printf+0xc0>
        s = "(null)";
    80000a10:	00009917          	auipc	s2,0x9
    80000a14:	60890913          	addi	s2,s2,1544 # 8000a018 <etext+0x18>
      for(; *s; s++)
    80000a18:	02800513          	li	a0,40
    80000a1c:	fddff06f          	j	800009f8 <printf+0x350>
    }

  }
  va_end(ap);

  if(panicking == 0)
    80000a20:	0000a797          	auipc	a5,0xa
    80000a24:	f847a783          	lw	a5,-124(a5) # 8000a9a4 <panicking>
    80000a28:	04078263          	beqz	a5,80000a6c <printf+0x3c4>
    release(&pr.lock);

  return 0;
}
    80000a2c:	00000513          	li	a0,0
    80000a30:	07813083          	ld	ra,120(sp)
    80000a34:	07013403          	ld	s0,112(sp)
    80000a38:	06813483          	ld	s1,104(sp)
    80000a3c:	06013903          	ld	s2,96(sp)
    80000a40:	05813983          	ld	s3,88(sp)
    80000a44:	05013a03          	ld	s4,80(sp)
    80000a48:	04813a83          	ld	s5,72(sp)
    80000a4c:	04013b03          	ld	s6,64(sp)
    80000a50:	03813b83          	ld	s7,56(sp)
    80000a54:	03013c03          	ld	s8,48(sp)
    80000a58:	02813c83          	ld	s9,40(sp)
    80000a5c:	02013d03          	ld	s10,32(sp)
    80000a60:	01813d83          	ld	s11,24(sp)
    80000a64:	0c010113          	addi	sp,sp,192
    80000a68:	00008067          	ret
    release(&pr.lock);
    80000a6c:	00012517          	auipc	a0,0x12
    80000a70:	00c50513          	addi	a0,a0,12 # 80012a78 <pr>
    80000a74:	00000097          	auipc	ra,0x0
    80000a78:	73c080e7          	jalr	1852(ra) # 800011b0 <release>
  return 0;
    80000a7c:	fb1ff06f          	j	80000a2c <printf+0x384>

0000000080000a80 <panic>:

void
panic(char *s)
{
    80000a80:	fe010113          	addi	sp,sp,-32
    80000a84:	00113c23          	sd	ra,24(sp)
    80000a88:	00813823          	sd	s0,16(sp)
    80000a8c:	00913423          	sd	s1,8(sp)
    80000a90:	01213023          	sd	s2,0(sp)
    80000a94:	02010413          	addi	s0,sp,32
    80000a98:	00050493          	mv	s1,a0
  panicking = 1;
    80000a9c:	00100913          	li	s2,1
    80000aa0:	0000a797          	auipc	a5,0xa
    80000aa4:	f127a223          	sw	s2,-252(a5) # 8000a9a4 <panicking>
  printf("panic: ");
    80000aa8:	00009517          	auipc	a0,0x9
    80000aac:	57850513          	addi	a0,a0,1400 # 8000a020 <etext+0x20>
    80000ab0:	00000097          	auipc	ra,0x0
    80000ab4:	bf8080e7          	jalr	-1032(ra) # 800006a8 <printf>
  printf("%s\n", s);
    80000ab8:	00048593          	mv	a1,s1
    80000abc:	00009517          	auipc	a0,0x9
    80000ac0:	56c50513          	addi	a0,a0,1388 # 8000a028 <etext+0x28>
    80000ac4:	00000097          	auipc	ra,0x0
    80000ac8:	be4080e7          	jalr	-1052(ra) # 800006a8 <printf>
  panicked = 1; // freeze uart output from other CPUs
    80000acc:	0000a797          	auipc	a5,0xa
    80000ad0:	ed27aa23          	sw	s2,-300(a5) # 8000a9a0 <panicked>
  for(;;)
    80000ad4:	0000006f          	j	80000ad4 <panic+0x54>

0000000080000ad8 <printfinit>:
    ;
}

void
printfinit(void)
{
    80000ad8:	ff010113          	addi	sp,sp,-16
    80000adc:	00113423          	sd	ra,8(sp)
    80000ae0:	00813023          	sd	s0,0(sp)
    80000ae4:	01010413          	addi	s0,sp,16
  initlock(&pr.lock, "pr");
    80000ae8:	00009597          	auipc	a1,0x9
    80000aec:	54858593          	addi	a1,a1,1352 # 8000a030 <etext+0x30>
    80000af0:	00012517          	auipc	a0,0x12
    80000af4:	f8850513          	addi	a0,a0,-120 # 80012a78 <pr>
    80000af8:	00000097          	auipc	ra,0x0
    80000afc:	4dc080e7          	jalr	1244(ra) # 80000fd4 <initlock>
}
    80000b00:	00813083          	ld	ra,8(sp)
    80000b04:	00013403          	ld	s0,0(sp)
    80000b08:	01010113          	addi	sp,sp,16
    80000b0c:	00008067          	ret

0000000080000b10 <uartinit>:
extern volatile int panicking; // from printf.c
extern volatile int panicked; // from printf.c

void
uartinit(void)
{
    80000b10:	ff010113          	addi	sp,sp,-16
    80000b14:	00113423          	sd	ra,8(sp)
    80000b18:	00813023          	sd	s0,0(sp)
    80000b1c:	01010413          	addi	s0,sp,16
  // disable interrupts.
  WriteReg(IER, 0x00);
    80000b20:	100007b7          	lui	a5,0x10000
    80000b24:	000780a3          	sb	zero,1(a5) # 10000001 <_entry-0x6fffffff>

  // special mode to set baud rate.
  WriteReg(LCR, LCR_BAUD_LATCH);
    80000b28:	f8000713          	li	a4,-128
    80000b2c:	00e781a3          	sb	a4,3(a5)

  // LSB for baud rate of 38.4K.
  WriteReg(0, 0x03);
    80000b30:	00300713          	li	a4,3
    80000b34:	00e78023          	sb	a4,0(a5)

  // MSB for baud rate of 38.4K.
  WriteReg(1, 0x00);
    80000b38:	000780a3          	sb	zero,1(a5)

  // leave set-baud mode,
  // and set word length to 8 bits, no parity.
  WriteReg(LCR, LCR_EIGHT_BITS);
    80000b3c:	00e781a3          	sb	a4,3(a5)

  // reset and enable FIFOs.
  WriteReg(FCR, FCR_FIFO_ENABLE | FCR_FIFO_CLEAR);
    80000b40:	00700693          	li	a3,7
    80000b44:	00d78123          	sb	a3,2(a5)

  // enable transmit and receive interrupts.
  WriteReg(IER, IER_TX_ENABLE | IER_RX_ENABLE);
    80000b48:	00e780a3          	sb	a4,1(a5)

  initlock(&tx_lock, "uart");
    80000b4c:	00009597          	auipc	a1,0x9
    80000b50:	50458593          	addi	a1,a1,1284 # 8000a050 <digits+0x18>
    80000b54:	00012517          	auipc	a0,0x12
    80000b58:	f3c50513          	addi	a0,a0,-196 # 80012a90 <tx_lock>
    80000b5c:	00000097          	auipc	ra,0x0
    80000b60:	478080e7          	jalr	1144(ra) # 80000fd4 <initlock>
}
    80000b64:	00813083          	ld	ra,8(sp)
    80000b68:	00013403          	ld	s0,0(sp)
    80000b6c:	01010113          	addi	sp,sp,16
    80000b70:	00008067          	ret

0000000080000b74 <uartwrite>:
// transmit buf[] to the uart. it blocks if the
// uart is busy, so it cannot be called from
// interrupts, only from write() system calls.
void
uartwrite(char buf[], int n)
{
    80000b74:	fb010113          	addi	sp,sp,-80
    80000b78:	04113423          	sd	ra,72(sp)
    80000b7c:	04813023          	sd	s0,64(sp)
    80000b80:	02913c23          	sd	s1,56(sp)
    80000b84:	03213823          	sd	s2,48(sp)
    80000b88:	03313423          	sd	s3,40(sp)
    80000b8c:	03413023          	sd	s4,32(sp)
    80000b90:	01513c23          	sd	s5,24(sp)
    80000b94:	01613823          	sd	s6,16(sp)
    80000b98:	01713423          	sd	s7,8(sp)
    80000b9c:	05010413          	addi	s0,sp,80
    80000ba0:	00050493          	mv	s1,a0
    80000ba4:	00058913          	mv	s2,a1
  acquire(&tx_lock);
    80000ba8:	00012517          	auipc	a0,0x12
    80000bac:	ee850513          	addi	a0,a0,-280 # 80012a90 <tx_lock>
    80000bb0:	00000097          	auipc	ra,0x0
    80000bb4:	508080e7          	jalr	1288(ra) # 800010b8 <acquire>

  int i = 0;
  while(i < n){ 
    80000bb8:	07205c63          	blez	s2,80000c30 <uartwrite+0xbc>
    80000bbc:	00048a13          	mv	s4,s1
    80000bc0:	00148493          	addi	s1,s1,1
    80000bc4:	fff9079b          	addiw	a5,s2,-1
    80000bc8:	02079793          	slli	a5,a5,0x20
    80000bcc:	0207d793          	srli	a5,a5,0x20
    80000bd0:	00f48ab3          	add	s5,s1,a5
    while(tx_busy != 0){
    80000bd4:	0000a497          	auipc	s1,0xa
    80000bd8:	dd848493          	addi	s1,s1,-552 # 8000a9ac <tx_busy>
      // wait for a UART transmit-complete interrupt
      // to set tx_busy to 0.
      sleep(&tx_chan, &tx_lock);
    80000bdc:	00012997          	auipc	s3,0x12
    80000be0:	eb498993          	addi	s3,s3,-332 # 80012a90 <tx_lock>
    80000be4:	0000a917          	auipc	s2,0xa
    80000be8:	dc490913          	addi	s2,s2,-572 # 8000a9a8 <tx_chan>
    }   
      
    WriteReg(THR, buf[i]);
    80000bec:	10000bb7          	lui	s7,0x10000
    i += 1;
    tx_busy = 1;
    80000bf0:	00100b13          	li	s6,1
    80000bf4:	0300006f          	j	80000c24 <uartwrite+0xb0>
      sleep(&tx_chan, &tx_lock);
    80000bf8:	00098593          	mv	a1,s3
    80000bfc:	00090513          	mv	a0,s2
    80000c00:	00002097          	auipc	ra,0x2
    80000c04:	4a0080e7          	jalr	1184(ra) # 800030a0 <sleep>
    while(tx_busy != 0){
    80000c08:	0004a783          	lw	a5,0(s1)
    80000c0c:	fe0796e3          	bnez	a5,80000bf8 <uartwrite+0x84>
    WriteReg(THR, buf[i]);
    80000c10:	000a4783          	lbu	a5,0(s4)
    80000c14:	00fb8023          	sb	a5,0(s7) # 10000000 <_entry-0x70000000>
    tx_busy = 1;
    80000c18:	0164a023          	sw	s6,0(s1)
  while(i < n){ 
    80000c1c:	001a0a13          	addi	s4,s4,1
    80000c20:	015a0863          	beq	s4,s5,80000c30 <uartwrite+0xbc>
    while(tx_busy != 0){
    80000c24:	0004a783          	lw	a5,0(s1)
    80000c28:	fc0798e3          	bnez	a5,80000bf8 <uartwrite+0x84>
    80000c2c:	fe5ff06f          	j	80000c10 <uartwrite+0x9c>
  }

  release(&tx_lock);
    80000c30:	00012517          	auipc	a0,0x12
    80000c34:	e6050513          	addi	a0,a0,-416 # 80012a90 <tx_lock>
    80000c38:	00000097          	auipc	ra,0x0
    80000c3c:	578080e7          	jalr	1400(ra) # 800011b0 <release>
}
    80000c40:	04813083          	ld	ra,72(sp)
    80000c44:	04013403          	ld	s0,64(sp)
    80000c48:	03813483          	ld	s1,56(sp)
    80000c4c:	03013903          	ld	s2,48(sp)
    80000c50:	02813983          	ld	s3,40(sp)
    80000c54:	02013a03          	ld	s4,32(sp)
    80000c58:	01813a83          	ld	s5,24(sp)
    80000c5c:	01013b03          	ld	s6,16(sp)
    80000c60:	00813b83          	ld	s7,8(sp)
    80000c64:	05010113          	addi	sp,sp,80
    80000c68:	00008067          	ret

0000000080000c6c <uartputc_sync>:
// interrupts, for use by kernel printf() and
// to echo characters. it spins waiting for the uart's
// output register to be empty.
void
uartputc_sync(int c)
{
    80000c6c:	fe010113          	addi	sp,sp,-32
    80000c70:	00113c23          	sd	ra,24(sp)
    80000c74:	00813823          	sd	s0,16(sp)
    80000c78:	00913423          	sd	s1,8(sp)
    80000c7c:	02010413          	addi	s0,sp,32
    80000c80:	00050493          	mv	s1,a0
  if(panicking == 0)
    80000c84:	0000a797          	auipc	a5,0xa
    80000c88:	d207a783          	lw	a5,-736(a5) # 8000a9a4 <panicking>
    80000c8c:	00078c63          	beqz	a5,80000ca4 <uartputc_sync+0x38>
    push_off();

  if(panicked){
    80000c90:	0000a797          	auipc	a5,0xa
    80000c94:	d107a783          	lw	a5,-752(a5) # 8000a9a0 <panicked>
    for(;;)
      ;
  }

  // wait for Transmit Holding Empty to be set in LSR.
  while((ReadReg(LSR) & LSR_TX_IDLE) == 0)
    80000c98:	10000737          	lui	a4,0x10000
  if(panicked){
    80000c9c:	00078a63          	beqz	a5,80000cb0 <uartputc_sync+0x44>
    for(;;)
    80000ca0:	0000006f          	j	80000ca0 <uartputc_sync+0x34>
    push_off();
    80000ca4:	00000097          	auipc	ra,0x0
    80000ca8:	3a0080e7          	jalr	928(ra) # 80001044 <push_off>
    80000cac:	fe5ff06f          	j	80000c90 <uartputc_sync+0x24>
  while((ReadReg(LSR) & LSR_TX_IDLE) == 0)
    80000cb0:	00574783          	lbu	a5,5(a4) # 10000005 <_entry-0x6ffffffb>
    80000cb4:	0207f793          	andi	a5,a5,32
    80000cb8:	fe078ce3          	beqz	a5,80000cb0 <uartputc_sync+0x44>
    ;
  WriteReg(THR, c);
    80000cbc:	0ff4f513          	zext.b	a0,s1
    80000cc0:	100007b7          	lui	a5,0x10000
    80000cc4:	00a78023          	sb	a0,0(a5) # 10000000 <_entry-0x70000000>

  if(panicking == 0)
    80000cc8:	0000a797          	auipc	a5,0xa
    80000ccc:	cdc7a783          	lw	a5,-804(a5) # 8000a9a4 <panicking>
    80000cd0:	00078c63          	beqz	a5,80000ce8 <uartputc_sync+0x7c>
    pop_off();
}
    80000cd4:	01813083          	ld	ra,24(sp)
    80000cd8:	01013403          	ld	s0,16(sp)
    80000cdc:	00813483          	ld	s1,8(sp)
    80000ce0:	02010113          	addi	sp,sp,32
    80000ce4:	00008067          	ret
    pop_off();
    80000ce8:	00000097          	auipc	ra,0x0
    80000cec:	448080e7          	jalr	1096(ra) # 80001130 <pop_off>
}
    80000cf0:	fe5ff06f          	j	80000cd4 <uartputc_sync+0x68>

0000000080000cf4 <uartgetc>:

// read one input character from the UART.
// return -1 if none is waiting.
int
uartgetc(void)
{
    80000cf4:	ff010113          	addi	sp,sp,-16
    80000cf8:	00813423          	sd	s0,8(sp)
    80000cfc:	01010413          	addi	s0,sp,16
  if(ReadReg(LSR) & LSR_RX_READY){
    80000d00:	100007b7          	lui	a5,0x10000
    80000d04:	0057c783          	lbu	a5,5(a5) # 10000005 <_entry-0x6ffffffb>
    80000d08:	0017f793          	andi	a5,a5,1
    80000d0c:	00078c63          	beqz	a5,80000d24 <uartgetc+0x30>
    // input data is ready.
    return ReadReg(RHR);
    80000d10:	100007b7          	lui	a5,0x10000
    80000d14:	0007c503          	lbu	a0,0(a5) # 10000000 <_entry-0x70000000>
  } else {
    return -1;
  }
}
    80000d18:	00813403          	ld	s0,8(sp)
    80000d1c:	01010113          	addi	sp,sp,16
    80000d20:	00008067          	ret
    return -1;
    80000d24:	fff00513          	li	a0,-1
    80000d28:	ff1ff06f          	j	80000d18 <uartgetc+0x24>

0000000080000d2c <uartintr>:
// handle a uart interrupt, raised because input has
// arrived, or the uart is ready for more output, or
// both. called from devintr().
void
uartintr(void)
{
    80000d2c:	fe010113          	addi	sp,sp,-32
    80000d30:	00113c23          	sd	ra,24(sp)
    80000d34:	00813823          	sd	s0,16(sp)
    80000d38:	00913423          	sd	s1,8(sp)
    80000d3c:	02010413          	addi	s0,sp,32
  ReadReg(ISR); // acknowledge the interrupt
    80000d40:	100004b7          	lui	s1,0x10000
    80000d44:	0024c783          	lbu	a5,2(s1) # 10000002 <_entry-0x6ffffffe>

  acquire(&tx_lock);
    80000d48:	00012517          	auipc	a0,0x12
    80000d4c:	d4850513          	addi	a0,a0,-696 # 80012a90 <tx_lock>
    80000d50:	00000097          	auipc	ra,0x0
    80000d54:	368080e7          	jalr	872(ra) # 800010b8 <acquire>
  if(ReadReg(LSR) & LSR_TX_IDLE){
    80000d58:	0054c783          	lbu	a5,5(s1)
    80000d5c:	0207f793          	andi	a5,a5,32
    80000d60:	00079e63          	bnez	a5,80000d7c <uartintr+0x50>
    // UART finished transmitting; wake up sending thread.
    tx_busy = 0;
    wakeup(&tx_chan);
  }
  release(&tx_lock);
    80000d64:	00012517          	auipc	a0,0x12
    80000d68:	d2c50513          	addi	a0,a0,-724 # 80012a90 <tx_lock>
    80000d6c:	00000097          	auipc	ra,0x0
    80000d70:	444080e7          	jalr	1092(ra) # 800011b0 <release>

  // read and process incoming characters.
  while(1){
    int c = uartgetc();
    if(c == -1)
    80000d74:	fff00493          	li	s1,-1
    80000d78:	0280006f          	j	80000da0 <uartintr+0x74>
    tx_busy = 0;
    80000d7c:	0000a797          	auipc	a5,0xa
    80000d80:	c207a823          	sw	zero,-976(a5) # 8000a9ac <tx_busy>
    wakeup(&tx_chan);
    80000d84:	0000a517          	auipc	a0,0xa
    80000d88:	c2450513          	addi	a0,a0,-988 # 8000a9a8 <tx_chan>
    80000d8c:	00002097          	auipc	ra,0x2
    80000d90:	3a4080e7          	jalr	932(ra) # 80003130 <wakeup>
    80000d94:	fd1ff06f          	j	80000d64 <uartintr+0x38>
      break;
    consoleintr(c);
    80000d98:	fffff097          	auipc	ra,0xfffff
    80000d9c:	608080e7          	jalr	1544(ra) # 800003a0 <consoleintr>
    int c = uartgetc();
    80000da0:	00000097          	auipc	ra,0x0
    80000da4:	f54080e7          	jalr	-172(ra) # 80000cf4 <uartgetc>
    if(c == -1)
    80000da8:	fe9518e3          	bne	a0,s1,80000d98 <uartintr+0x6c>
  }
}
    80000dac:	01813083          	ld	ra,24(sp)
    80000db0:	01013403          	ld	s0,16(sp)
    80000db4:	00813483          	ld	s1,8(sp)
    80000db8:	02010113          	addi	sp,sp,32
    80000dbc:	00008067          	ret

0000000080000dc0 <kfree>:
// which normally should have been returned by a
// call to kalloc().  (The exception is when
// initializing the allocator; see kinit above.)
void
kfree(void *pa)
{
    80000dc0:	fe010113          	addi	sp,sp,-32
    80000dc4:	00113c23          	sd	ra,24(sp)
    80000dc8:	00813823          	sd	s0,16(sp)
    80000dcc:	00913423          	sd	s1,8(sp)
    80000dd0:	01213023          	sd	s2,0(sp)
    80000dd4:	02010413          	addi	s0,sp,32
  struct run *r;

  if(((uint64)pa % PGSIZE) != 0 || (char*)pa < end || (uint64)pa >= PHYSTOP)
    80000dd8:	03451793          	slli	a5,a0,0x34
    80000ddc:	06079a63          	bnez	a5,80000e50 <kfree+0x90>
    80000de0:	00050493          	mv	s1,a0
    80000de4:	00023797          	auipc	a5,0x23
    80000de8:	ef478793          	addi	a5,a5,-268 # 80023cd8 <end>
    80000dec:	06f56263          	bltu	a0,a5,80000e50 <kfree+0x90>
    80000df0:	01100793          	li	a5,17
    80000df4:	01b79793          	slli	a5,a5,0x1b
    80000df8:	04f57c63          	bgeu	a0,a5,80000e50 <kfree+0x90>
    panic("kfree");

  // Fill with junk to catch dangling refs.
  memset(pa, 1, PGSIZE);  //1个4KB，
    80000dfc:	00001637          	lui	a2,0x1
    80000e00:	00100593          	li	a1,1
    80000e04:	00000097          	auipc	ra,0x0
    80000e08:	40c080e7          	jalr	1036(ra) # 80001210 <memset>

  r = (struct run*)pa;
  acquire(&kmem.lock);
    80000e0c:	00012917          	auipc	s2,0x12
    80000e10:	c9c90913          	addi	s2,s2,-868 # 80012aa8 <kmem>
    80000e14:	00090513          	mv	a0,s2
    80000e18:	00000097          	auipc	ra,0x0
    80000e1c:	2a0080e7          	jalr	672(ra) # 800010b8 <acquire>
  r->next = kmem.freelist;
    80000e20:	01893783          	ld	a5,24(s2)
    80000e24:	00f4b023          	sd	a5,0(s1)
  kmem.freelist = r;
    80000e28:	00993c23          	sd	s1,24(s2)
  release(&kmem.lock);
    80000e2c:	00090513          	mv	a0,s2
    80000e30:	00000097          	auipc	ra,0x0
    80000e34:	380080e7          	jalr	896(ra) # 800011b0 <release>
}
    80000e38:	01813083          	ld	ra,24(sp)
    80000e3c:	01013403          	ld	s0,16(sp)
    80000e40:	00813483          	ld	s1,8(sp)
    80000e44:	00013903          	ld	s2,0(sp)
    80000e48:	02010113          	addi	sp,sp,32
    80000e4c:	00008067          	ret
    panic("kfree");
    80000e50:	00009517          	auipc	a0,0x9
    80000e54:	20850513          	addi	a0,a0,520 # 8000a058 <digits+0x20>
    80000e58:	00000097          	auipc	ra,0x0
    80000e5c:	c28080e7          	jalr	-984(ra) # 80000a80 <panic>

0000000080000e60 <freerange>:
{
    80000e60:	fd010113          	addi	sp,sp,-48
    80000e64:	02113423          	sd	ra,40(sp)
    80000e68:	02813023          	sd	s0,32(sp)
    80000e6c:	00913c23          	sd	s1,24(sp)
    80000e70:	01213823          	sd	s2,16(sp)
    80000e74:	01313423          	sd	s3,8(sp)
    80000e78:	01413023          	sd	s4,0(sp)
    80000e7c:	03010413          	addi	s0,sp,48
  p = (char*)PGROUNDUP((uint64)pa_start);
    80000e80:	000017b7          	lui	a5,0x1
    80000e84:	fff78713          	addi	a4,a5,-1 # fff <_entry-0x7ffff001>
    80000e88:	00e504b3          	add	s1,a0,a4
    80000e8c:	fffff737          	lui	a4,0xfffff
    80000e90:	00e4f4b3          	and	s1,s1,a4
  for(; p + PGSIZE <= (char*)pa_end; p += PGSIZE)
    80000e94:	00f484b3          	add	s1,s1,a5
    80000e98:	0295e263          	bltu	a1,s1,80000ebc <freerange+0x5c>
    80000e9c:	00058913          	mv	s2,a1
    kfree(p);
    80000ea0:	fffffa37          	lui	s4,0xfffff
  for(; p + PGSIZE <= (char*)pa_end; p += PGSIZE)
    80000ea4:	000019b7          	lui	s3,0x1
    kfree(p);
    80000ea8:	01448533          	add	a0,s1,s4
    80000eac:	00000097          	auipc	ra,0x0
    80000eb0:	f14080e7          	jalr	-236(ra) # 80000dc0 <kfree>
  for(; p + PGSIZE <= (char*)pa_end; p += PGSIZE)
    80000eb4:	013484b3          	add	s1,s1,s3
    80000eb8:	fe9978e3          	bgeu	s2,s1,80000ea8 <freerange+0x48>
}
    80000ebc:	02813083          	ld	ra,40(sp)
    80000ec0:	02013403          	ld	s0,32(sp)
    80000ec4:	01813483          	ld	s1,24(sp)
    80000ec8:	01013903          	ld	s2,16(sp)
    80000ecc:	00813983          	ld	s3,8(sp)
    80000ed0:	00013a03          	ld	s4,0(sp)
    80000ed4:	03010113          	addi	sp,sp,48
    80000ed8:	00008067          	ret

0000000080000edc <kinit>:
{
    80000edc:	ff010113          	addi	sp,sp,-16
    80000ee0:	00113423          	sd	ra,8(sp)
    80000ee4:	00813023          	sd	s0,0(sp)
    80000ee8:	01010413          	addi	s0,sp,16
  initlock(&kmem.lock, "kmem");
    80000eec:	00009597          	auipc	a1,0x9
    80000ef0:	17458593          	addi	a1,a1,372 # 8000a060 <digits+0x28>
    80000ef4:	00012517          	auipc	a0,0x12
    80000ef8:	bb450513          	addi	a0,a0,-1100 # 80012aa8 <kmem>
    80000efc:	00000097          	auipc	ra,0x0
    80000f00:	0d8080e7          	jalr	216(ra) # 80000fd4 <initlock>
  printf("freerange开始执行\n");
    80000f04:	00009517          	auipc	a0,0x9
    80000f08:	16450513          	addi	a0,a0,356 # 8000a068 <digits+0x30>
    80000f0c:	fffff097          	auipc	ra,0xfffff
    80000f10:	79c080e7          	jalr	1948(ra) # 800006a8 <printf>
  freerange(end, (void*)PHYSTOP);
    80000f14:	01100593          	li	a1,17
    80000f18:	01b59593          	slli	a1,a1,0x1b
    80000f1c:	00023517          	auipc	a0,0x23
    80000f20:	dbc50513          	addi	a0,a0,-580 # 80023cd8 <end>
    80000f24:	00000097          	auipc	ra,0x0
    80000f28:	f3c080e7          	jalr	-196(ra) # 80000e60 <freerange>
  printf("freerange执行完毕\n");
    80000f2c:	00009517          	auipc	a0,0x9
    80000f30:	15450513          	addi	a0,a0,340 # 8000a080 <digits+0x48>
    80000f34:	fffff097          	auipc	ra,0xfffff
    80000f38:	774080e7          	jalr	1908(ra) # 800006a8 <printf>
}
    80000f3c:	00813083          	ld	ra,8(sp)
    80000f40:	00013403          	ld	s0,0(sp)
    80000f44:	01010113          	addi	sp,sp,16
    80000f48:	00008067          	ret

0000000080000f4c <kalloc>:
// Allocate one 4096-byte page of physical memory.
// Returns a pointer that the kernel can use.
// Returns 0 if the memory cannot be allocated.
void *
kalloc(void)
{
    80000f4c:	fe010113          	addi	sp,sp,-32
    80000f50:	00113c23          	sd	ra,24(sp)
    80000f54:	00813823          	sd	s0,16(sp)
    80000f58:	00913423          	sd	s1,8(sp)
    80000f5c:	02010413          	addi	s0,sp,32
  struct run *r;

  acquire(&kmem.lock);            //fence
    80000f60:	00012497          	auipc	s1,0x12
    80000f64:	b4848493          	addi	s1,s1,-1208 # 80012aa8 <kmem>
    80000f68:	00048513          	mv	a0,s1
    80000f6c:	00000097          	auipc	ra,0x0
    80000f70:	14c080e7          	jalr	332(ra) # 800010b8 <acquire>
  r = kmem.freelist;
    80000f74:	0184b483          	ld	s1,24(s1)
  if(r)
    80000f78:	04048463          	beqz	s1,80000fc0 <kalloc+0x74>
    kmem.freelist = r->next;
    80000f7c:	0004b783          	ld	a5,0(s1)
    80000f80:	00012517          	auipc	a0,0x12
    80000f84:	b2850513          	addi	a0,a0,-1240 # 80012aa8 <kmem>
    80000f88:	00f53c23          	sd	a5,24(a0)
  release(&kmem.lock);
    80000f8c:	00000097          	auipc	ra,0x0
    80000f90:	224080e7          	jalr	548(ra) # 800011b0 <release>

  if(r)
    memset((char*)r, 5, PGSIZE); // fill with junk
    80000f94:	00001637          	lui	a2,0x1
    80000f98:	00500593          	li	a1,5
    80000f9c:	00048513          	mv	a0,s1
    80000fa0:	00000097          	auipc	ra,0x0
    80000fa4:	270080e7          	jalr	624(ra) # 80001210 <memset>
  return (void*)r;
}
    80000fa8:	00048513          	mv	a0,s1
    80000fac:	01813083          	ld	ra,24(sp)
    80000fb0:	01013403          	ld	s0,16(sp)
    80000fb4:	00813483          	ld	s1,8(sp)
    80000fb8:	02010113          	addi	sp,sp,32
    80000fbc:	00008067          	ret
  release(&kmem.lock);
    80000fc0:	00012517          	auipc	a0,0x12
    80000fc4:	ae850513          	addi	a0,a0,-1304 # 80012aa8 <kmem>
    80000fc8:	00000097          	auipc	ra,0x0
    80000fcc:	1e8080e7          	jalr	488(ra) # 800011b0 <release>
  if(r)
    80000fd0:	fd9ff06f          	j	80000fa8 <kalloc+0x5c>

0000000080000fd4 <initlock>:
#include "proc.h"
#include "defs.h"

void
initlock(struct spinlock *lk, char *name)
{
    80000fd4:	ff010113          	addi	sp,sp,-16
    80000fd8:	00813423          	sd	s0,8(sp)
    80000fdc:	01010413          	addi	s0,sp,16
  lk->name = name;
    80000fe0:	00b53423          	sd	a1,8(a0)
  lk->locked = 0;
    80000fe4:	00052023          	sw	zero,0(a0)
  lk->cpu = 0;
    80000fe8:	00053823          	sd	zero,16(a0)
}
    80000fec:	00813403          	ld	s0,8(sp)
    80000ff0:	01010113          	addi	sp,sp,16
    80000ff4:	00008067          	ret

0000000080000ff8 <holding>:
// Interrupts must be off.
int
holding(struct spinlock *lk)
{
  int r;
  r = (lk->locked && lk->cpu == mycpu());
    80000ff8:	00052783          	lw	a5,0(a0)
    80000ffc:	00079663          	bnez	a5,80001008 <holding+0x10>
    80001000:	00000513          	li	a0,0
  return r;
}
    80001004:	00008067          	ret
{
    80001008:	fe010113          	addi	sp,sp,-32
    8000100c:	00113c23          	sd	ra,24(sp)
    80001010:	00813823          	sd	s0,16(sp)
    80001014:	00913423          	sd	s1,8(sp)
    80001018:	02010413          	addi	s0,sp,32
  r = (lk->locked && lk->cpu == mycpu());
    8000101c:	01053483          	ld	s1,16(a0)
    80001020:	00001097          	auipc	ra,0x1
    80001024:	698080e7          	jalr	1688(ra) # 800026b8 <mycpu>
    80001028:	40a48533          	sub	a0,s1,a0
    8000102c:	00153513          	seqz	a0,a0
}
    80001030:	01813083          	ld	ra,24(sp)
    80001034:	01013403          	ld	s0,16(sp)
    80001038:	00813483          	ld	s1,8(sp)
    8000103c:	02010113          	addi	sp,sp,32
    80001040:	00008067          	ret

0000000080001044 <push_off>:
// it takes two pop_off()s to undo two push_off()s.  Also, if interrupts
// are initially off, then push_off, pop_off leaves them off.

void
push_off(void)
{
    80001044:	fe010113          	addi	sp,sp,-32
    80001048:	00113c23          	sd	ra,24(sp)
    8000104c:	00813823          	sd	s0,16(sp)
    80001050:	00913423          	sd	s1,8(sp)
    80001054:	02010413          	addi	s0,sp,32
  asm volatile("csrr %0, sstatus" : "=r" (x) );
    80001058:	100024f3          	csrr	s1,sstatus
    8000105c:	100027f3          	csrr	a5,sstatus
  w_sstatus(r_sstatus() & ~SSTATUS_SIE);
    80001060:	ffd7f793          	andi	a5,a5,-3
  asm volatile("csrw sstatus, %0" : : "r" (x));
    80001064:	10079073          	csrw	sstatus,a5

  // disable interrupts to prevent an involuntary context
  // switch while using mycpu().
  intr_off();

  if(mycpu()->noff == 0)
    80001068:	00001097          	auipc	ra,0x1
    8000106c:	650080e7          	jalr	1616(ra) # 800026b8 <mycpu>
    80001070:	07852783          	lw	a5,120(a0)
    80001074:	02078663          	beqz	a5,800010a0 <push_off+0x5c>
    mycpu()->intena = old;
  mycpu()->noff += 1;
    80001078:	00001097          	auipc	ra,0x1
    8000107c:	640080e7          	jalr	1600(ra) # 800026b8 <mycpu>
    80001080:	07852783          	lw	a5,120(a0)
    80001084:	0017879b          	addiw	a5,a5,1
    80001088:	06f52c23          	sw	a5,120(a0)
}
    8000108c:	01813083          	ld	ra,24(sp)
    80001090:	01013403          	ld	s0,16(sp)
    80001094:	00813483          	ld	s1,8(sp)
    80001098:	02010113          	addi	sp,sp,32
    8000109c:	00008067          	ret
    mycpu()->intena = old;
    800010a0:	00001097          	auipc	ra,0x1
    800010a4:	618080e7          	jalr	1560(ra) # 800026b8 <mycpu>
  return (x & SSTATUS_SIE) != 0;
    800010a8:	0014d493          	srli	s1,s1,0x1
    800010ac:	0014f493          	andi	s1,s1,1
    800010b0:	06952e23          	sw	s1,124(a0)
    800010b4:	fc5ff06f          	j	80001078 <push_off+0x34>

00000000800010b8 <acquire>:
{
    800010b8:	fe010113          	addi	sp,sp,-32
    800010bc:	00113c23          	sd	ra,24(sp)
    800010c0:	00813823          	sd	s0,16(sp)
    800010c4:	00913423          	sd	s1,8(sp)
    800010c8:	02010413          	addi	s0,sp,32
    800010cc:	00050493          	mv	s1,a0
  push_off(); // disable interrupts to avoid deadlock.
    800010d0:	00000097          	auipc	ra,0x0
    800010d4:	f74080e7          	jalr	-140(ra) # 80001044 <push_off>
  if(holding(lk))
    800010d8:	00048513          	mv	a0,s1
    800010dc:	00000097          	auipc	ra,0x0
    800010e0:	f1c080e7          	jalr	-228(ra) # 80000ff8 <holding>
  while(__sync_lock_test_and_set(&lk->locked, 1) != 0)
    800010e4:	00100713          	li	a4,1
  if(holding(lk))
    800010e8:	02051c63          	bnez	a0,80001120 <acquire+0x68>
  while(__sync_lock_test_and_set(&lk->locked, 1) != 0)
    800010ec:	00070793          	mv	a5,a4
    800010f0:	0cf4a7af          	amoswap.w.aq	a5,a5,(s1)
    800010f4:	0007879b          	sext.w	a5,a5
    800010f8:	fe079ae3          	bnez	a5,800010ec <acquire+0x34>
  __sync_synchronize();
    800010fc:	0ff0000f          	fence
  lk->cpu = mycpu();
    80001100:	00001097          	auipc	ra,0x1
    80001104:	5b8080e7          	jalr	1464(ra) # 800026b8 <mycpu>
    80001108:	00a4b823          	sd	a0,16(s1)
}
    8000110c:	01813083          	ld	ra,24(sp)
    80001110:	01013403          	ld	s0,16(sp)
    80001114:	00813483          	ld	s1,8(sp)
    80001118:	02010113          	addi	sp,sp,32
    8000111c:	00008067          	ret
    panic("acquire");
    80001120:	00009517          	auipc	a0,0x9
    80001124:	f7850513          	addi	a0,a0,-136 # 8000a098 <digits+0x60>
    80001128:	00000097          	auipc	ra,0x0
    8000112c:	958080e7          	jalr	-1704(ra) # 80000a80 <panic>

0000000080001130 <pop_off>:

void
pop_off(void)
{
    80001130:	ff010113          	addi	sp,sp,-16
    80001134:	00113423          	sd	ra,8(sp)
    80001138:	00813023          	sd	s0,0(sp)
    8000113c:	01010413          	addi	s0,sp,16
  struct cpu *c = mycpu();
    80001140:	00001097          	auipc	ra,0x1
    80001144:	578080e7          	jalr	1400(ra) # 800026b8 <mycpu>
  asm volatile("csrr %0, sstatus" : "=r" (x) );
    80001148:	100027f3          	csrr	a5,sstatus
  return (x & SSTATUS_SIE) != 0;
    8000114c:	0027f793          	andi	a5,a5,2
  if(intr_get())
    80001150:	04079063          	bnez	a5,80001190 <pop_off+0x60>
    panic("pop_off - interruptible");
  if(c->noff < 1)
    80001154:	07852783          	lw	a5,120(a0)
    80001158:	04f05463          	blez	a5,800011a0 <pop_off+0x70>
    panic("pop_off");
  c->noff -= 1;
    8000115c:	fff7879b          	addiw	a5,a5,-1
    80001160:	0007871b          	sext.w	a4,a5
    80001164:	06f52c23          	sw	a5,120(a0)
  if(c->noff == 0 && c->intena)
    80001168:	00071c63          	bnez	a4,80001180 <pop_off+0x50>
    8000116c:	07c52783          	lw	a5,124(a0)
    80001170:	00078863          	beqz	a5,80001180 <pop_off+0x50>
  asm volatile("csrr %0, sstatus" : "=r" (x) );
    80001174:	100027f3          	csrr	a5,sstatus
  w_sstatus(r_sstatus() | SSTATUS_SIE);
    80001178:	0027e793          	ori	a5,a5,2
  asm volatile("csrw sstatus, %0" : : "r" (x));
    8000117c:	10079073          	csrw	sstatus,a5
    intr_on();
}
    80001180:	00813083          	ld	ra,8(sp)
    80001184:	00013403          	ld	s0,0(sp)
    80001188:	01010113          	addi	sp,sp,16
    8000118c:	00008067          	ret
    panic("pop_off - interruptible");
    80001190:	00009517          	auipc	a0,0x9
    80001194:	f1050513          	addi	a0,a0,-240 # 8000a0a0 <digits+0x68>
    80001198:	00000097          	auipc	ra,0x0
    8000119c:	8e8080e7          	jalr	-1816(ra) # 80000a80 <panic>
    panic("pop_off");
    800011a0:	00009517          	auipc	a0,0x9
    800011a4:	f1850513          	addi	a0,a0,-232 # 8000a0b8 <digits+0x80>
    800011a8:	00000097          	auipc	ra,0x0
    800011ac:	8d8080e7          	jalr	-1832(ra) # 80000a80 <panic>

00000000800011b0 <release>:
{
    800011b0:	fe010113          	addi	sp,sp,-32
    800011b4:	00113c23          	sd	ra,24(sp)
    800011b8:	00813823          	sd	s0,16(sp)
    800011bc:	00913423          	sd	s1,8(sp)
    800011c0:	02010413          	addi	s0,sp,32
    800011c4:	00050493          	mv	s1,a0
  if(!holding(lk))
    800011c8:	00000097          	auipc	ra,0x0
    800011cc:	e30080e7          	jalr	-464(ra) # 80000ff8 <holding>
    800011d0:	02050863          	beqz	a0,80001200 <release+0x50>
  lk->cpu = 0;
    800011d4:	0004b823          	sd	zero,16(s1)
  __sync_synchronize();
    800011d8:	0ff0000f          	fence
  __sync_lock_release(&lk->locked);
    800011dc:	0f50000f          	fence	iorw,ow
    800011e0:	0804a02f          	amoswap.w	zero,zero,(s1)
  pop_off();
    800011e4:	00000097          	auipc	ra,0x0
    800011e8:	f4c080e7          	jalr	-180(ra) # 80001130 <pop_off>
}
    800011ec:	01813083          	ld	ra,24(sp)
    800011f0:	01013403          	ld	s0,16(sp)
    800011f4:	00813483          	ld	s1,8(sp)
    800011f8:	02010113          	addi	sp,sp,32
    800011fc:	00008067          	ret
    panic("release");
    80001200:	00009517          	auipc	a0,0x9
    80001204:	ec050513          	addi	a0,a0,-320 # 8000a0c0 <digits+0x88>
    80001208:	00000097          	auipc	ra,0x0
    8000120c:	878080e7          	jalr	-1928(ra) # 80000a80 <panic>

0000000080001210 <memset>:
#include "types.h"

void*
memset(void *dst, int c, uint n)
{
    80001210:	ff010113          	addi	sp,sp,-16
    80001214:	00813423          	sd	s0,8(sp)
    80001218:	01010413          	addi	s0,sp,16
  char *cdst = (char *) dst;
  int i;
  for(i = 0; i < n; i++){
    8000121c:	02060063          	beqz	a2,8000123c <memset+0x2c>
    80001220:	00050793          	mv	a5,a0
    80001224:	02061613          	slli	a2,a2,0x20
    80001228:	02065613          	srli	a2,a2,0x20
    8000122c:	00a60733          	add	a4,a2,a0
    cdst[i] = c;
    80001230:	00b78023          	sb	a1,0(a5)
  for(i = 0; i < n; i++){
    80001234:	00178793          	addi	a5,a5,1
    80001238:	fee79ce3          	bne	a5,a4,80001230 <memset+0x20>
  }
  return dst;
}
    8000123c:	00813403          	ld	s0,8(sp)
    80001240:	01010113          	addi	sp,sp,16
    80001244:	00008067          	ret

0000000080001248 <memcmp>:

int
memcmp(const void *v1, const void *v2, uint n)
{
    80001248:	ff010113          	addi	sp,sp,-16
    8000124c:	00813423          	sd	s0,8(sp)
    80001250:	01010413          	addi	s0,sp,16
  const uchar *s1, *s2;

  s1 = v1;
  s2 = v2;
  while(n-- > 0){
    80001254:	04060463          	beqz	a2,8000129c <memcmp+0x54>
    80001258:	fff6069b          	addiw	a3,a2,-1 # fff <_entry-0x7ffff001>
    8000125c:	02069693          	slli	a3,a3,0x20
    80001260:	0206d693          	srli	a3,a3,0x20
    80001264:	00168693          	addi	a3,a3,1
    80001268:	00d506b3          	add	a3,a0,a3
    if(*s1 != *s2)
    8000126c:	00054783          	lbu	a5,0(a0)
    80001270:	0005c703          	lbu	a4,0(a1)
    80001274:	00e79c63          	bne	a5,a4,8000128c <memcmp+0x44>
      return *s1 - *s2;
    s1++, s2++;
    80001278:	00150513          	addi	a0,a0,1
    8000127c:	00158593          	addi	a1,a1,1
  while(n-- > 0){
    80001280:	fed516e3          	bne	a0,a3,8000126c <memcmp+0x24>
  }

  return 0;
    80001284:	00000513          	li	a0,0
    80001288:	0080006f          	j	80001290 <memcmp+0x48>
      return *s1 - *s2;
    8000128c:	40e7853b          	subw	a0,a5,a4
}
    80001290:	00813403          	ld	s0,8(sp)
    80001294:	01010113          	addi	sp,sp,16
    80001298:	00008067          	ret
  return 0;
    8000129c:	00000513          	li	a0,0
    800012a0:	ff1ff06f          	j	80001290 <memcmp+0x48>

00000000800012a4 <memmove>:

void*
memmove(void *dst, const void *src, uint n)
{
    800012a4:	ff010113          	addi	sp,sp,-16
    800012a8:	00813423          	sd	s0,8(sp)
    800012ac:	01010413          	addi	s0,sp,16
  const char *s;
  char *d;

  if(n == 0)
    800012b0:	02060663          	beqz	a2,800012dc <memmove+0x38>
    return dst;
  
  s = src;
  d = dst;
  if(s < d && s + n > d){
    800012b4:	02a5ea63          	bltu	a1,a0,800012e8 <memmove+0x44>
    s += n;
    d += n;
    while(n-- > 0)
      *--d = *--s;
  } else
    while(n-- > 0)
    800012b8:	02061613          	slli	a2,a2,0x20
    800012bc:	02065613          	srli	a2,a2,0x20
    800012c0:	00c587b3          	add	a5,a1,a2
{
    800012c4:	00050713          	mv	a4,a0
      *d++ = *s++;
    800012c8:	00158593          	addi	a1,a1,1
    800012cc:	00170713          	addi	a4,a4,1 # fffffffffffff001 <end+0xffffffff7ffdb329>
    800012d0:	fff5c683          	lbu	a3,-1(a1)
    800012d4:	fed70fa3          	sb	a3,-1(a4)
    while(n-- > 0)
    800012d8:	fef598e3          	bne	a1,a5,800012c8 <memmove+0x24>

  return dst;
}
    800012dc:	00813403          	ld	s0,8(sp)
    800012e0:	01010113          	addi	sp,sp,16
    800012e4:	00008067          	ret
  if(s < d && s + n > d){
    800012e8:	02061693          	slli	a3,a2,0x20
    800012ec:	0206d693          	srli	a3,a3,0x20
    800012f0:	00d58733          	add	a4,a1,a3
    800012f4:	fce572e3          	bgeu	a0,a4,800012b8 <memmove+0x14>
    d += n;
    800012f8:	00d506b3          	add	a3,a0,a3
    while(n-- > 0)
    800012fc:	fff6079b          	addiw	a5,a2,-1
    80001300:	02079793          	slli	a5,a5,0x20
    80001304:	0207d793          	srli	a5,a5,0x20
    80001308:	fff7c793          	not	a5,a5
    8000130c:	00f707b3          	add	a5,a4,a5
      *--d = *--s;
    80001310:	fff70713          	addi	a4,a4,-1
    80001314:	fff68693          	addi	a3,a3,-1
    80001318:	00074603          	lbu	a2,0(a4)
    8000131c:	00c68023          	sb	a2,0(a3)
    while(n-- > 0)
    80001320:	fee798e3          	bne	a5,a4,80001310 <memmove+0x6c>
    80001324:	fb9ff06f          	j	800012dc <memmove+0x38>

0000000080001328 <memcpy>:

// memcpy exists to placate GCC.  Use memmove.
void*
memcpy(void *dst, const void *src, uint n)
{
    80001328:	ff010113          	addi	sp,sp,-16
    8000132c:	00113423          	sd	ra,8(sp)
    80001330:	00813023          	sd	s0,0(sp)
    80001334:	01010413          	addi	s0,sp,16
  return memmove(dst, src, n);
    80001338:	00000097          	auipc	ra,0x0
    8000133c:	f6c080e7          	jalr	-148(ra) # 800012a4 <memmove>
}
    80001340:	00813083          	ld	ra,8(sp)
    80001344:	00013403          	ld	s0,0(sp)
    80001348:	01010113          	addi	sp,sp,16
    8000134c:	00008067          	ret

0000000080001350 <strncmp>:

int
strncmp(const char *p, const char *q, uint n)
{
    80001350:	ff010113          	addi	sp,sp,-16
    80001354:	00813423          	sd	s0,8(sp)
    80001358:	01010413          	addi	s0,sp,16
  while(n > 0 && *p && *p == *q)
    8000135c:	02060663          	beqz	a2,80001388 <strncmp+0x38>
    80001360:	00054783          	lbu	a5,0(a0)
    80001364:	02078663          	beqz	a5,80001390 <strncmp+0x40>
    80001368:	0005c703          	lbu	a4,0(a1)
    8000136c:	02f71263          	bne	a4,a5,80001390 <strncmp+0x40>
    n--, p++, q++;
    80001370:	fff6061b          	addiw	a2,a2,-1
    80001374:	00150513          	addi	a0,a0,1
    80001378:	00158593          	addi	a1,a1,1
  while(n > 0 && *p && *p == *q)
    8000137c:	fe0612e3          	bnez	a2,80001360 <strncmp+0x10>
  if(n == 0)
    return 0;
    80001380:	00000513          	li	a0,0
    80001384:	01c0006f          	j	800013a0 <strncmp+0x50>
    80001388:	00000513          	li	a0,0
    8000138c:	0140006f          	j	800013a0 <strncmp+0x50>
  if(n == 0)
    80001390:	00060e63          	beqz	a2,800013ac <strncmp+0x5c>
  return (uchar)*p - (uchar)*q;
    80001394:	00054503          	lbu	a0,0(a0)
    80001398:	0005c783          	lbu	a5,0(a1)
    8000139c:	40f5053b          	subw	a0,a0,a5
}
    800013a0:	00813403          	ld	s0,8(sp)
    800013a4:	01010113          	addi	sp,sp,16
    800013a8:	00008067          	ret
    return 0;
    800013ac:	00000513          	li	a0,0
    800013b0:	ff1ff06f          	j	800013a0 <strncmp+0x50>

00000000800013b4 <strncpy>:

char*
strncpy(char *s, const char *t, int n)
{
    800013b4:	ff010113          	addi	sp,sp,-16
    800013b8:	00813423          	sd	s0,8(sp)
    800013bc:	01010413          	addi	s0,sp,16
  char *os;

  os = s;
  while(n-- > 0 && (*s++ = *t++) != 0)
    800013c0:	00050713          	mv	a4,a0
    800013c4:	00060813          	mv	a6,a2
    800013c8:	fff6061b          	addiw	a2,a2,-1
    800013cc:	01005c63          	blez	a6,800013e4 <strncpy+0x30>
    800013d0:	00170713          	addi	a4,a4,1
    800013d4:	0005c783          	lbu	a5,0(a1)
    800013d8:	fef70fa3          	sb	a5,-1(a4)
    800013dc:	00158593          	addi	a1,a1,1
    800013e0:	fe0792e3          	bnez	a5,800013c4 <strncpy+0x10>
    ;
  while(n-- > 0)
    800013e4:	00070693          	mv	a3,a4
    800013e8:	00c05e63          	blez	a2,80001404 <strncpy+0x50>
    *s++ = 0;
    800013ec:	00168693          	addi	a3,a3,1
    800013f0:	fe068fa3          	sb	zero,-1(a3)
  while(n-- > 0)
    800013f4:	40d707bb          	subw	a5,a4,a3
    800013f8:	fff7879b          	addiw	a5,a5,-1
    800013fc:	010787bb          	addw	a5,a5,a6
    80001400:	fef046e3          	bgtz	a5,800013ec <strncpy+0x38>
  return os;
}
    80001404:	00813403          	ld	s0,8(sp)
    80001408:	01010113          	addi	sp,sp,16
    8000140c:	00008067          	ret

0000000080001410 <safestrcpy>:

// Like strncpy but guaranteed to NUL-terminate.
char*
safestrcpy(char *s, const char *t, int n)
{
    80001410:	ff010113          	addi	sp,sp,-16
    80001414:	00813423          	sd	s0,8(sp)
    80001418:	01010413          	addi	s0,sp,16
  char *os;

  os = s;
  if(n <= 0)
    8000141c:	02c05a63          	blez	a2,80001450 <safestrcpy+0x40>
    80001420:	fff6069b          	addiw	a3,a2,-1
    80001424:	02069693          	slli	a3,a3,0x20
    80001428:	0206d693          	srli	a3,a3,0x20
    8000142c:	00d586b3          	add	a3,a1,a3
    80001430:	00050793          	mv	a5,a0
    return os;
  while(--n > 0 && (*s++ = *t++) != 0)
    80001434:	00d58c63          	beq	a1,a3,8000144c <safestrcpy+0x3c>
    80001438:	00158593          	addi	a1,a1,1
    8000143c:	00178793          	addi	a5,a5,1
    80001440:	fff5c703          	lbu	a4,-1(a1)
    80001444:	fee78fa3          	sb	a4,-1(a5)
    80001448:	fe0716e3          	bnez	a4,80001434 <safestrcpy+0x24>
    ;
  *s = 0;
    8000144c:	00078023          	sb	zero,0(a5)
  return os;
}
    80001450:	00813403          	ld	s0,8(sp)
    80001454:	01010113          	addi	sp,sp,16
    80001458:	00008067          	ret

000000008000145c <strlen>:

int
strlen(const char *s)
{
    8000145c:	ff010113          	addi	sp,sp,-16
    80001460:	00813423          	sd	s0,8(sp)
    80001464:	01010413          	addi	s0,sp,16
  int n;

  for(n = 0; s[n]; n++)
    80001468:	00054783          	lbu	a5,0(a0)
    8000146c:	02078863          	beqz	a5,8000149c <strlen+0x40>
    80001470:	00150513          	addi	a0,a0,1
    80001474:	00050793          	mv	a5,a0
    80001478:	00100693          	li	a3,1
    8000147c:	40a686bb          	subw	a3,a3,a0
    80001480:	00f6853b          	addw	a0,a3,a5
    80001484:	00178793          	addi	a5,a5,1
    80001488:	fff7c703          	lbu	a4,-1(a5)
    8000148c:	fe071ae3          	bnez	a4,80001480 <strlen+0x24>
    ;
  return n;
}
    80001490:	00813403          	ld	s0,8(sp)
    80001494:	01010113          	addi	sp,sp,16
    80001498:	00008067          	ret
  for(n = 0; s[n]; n++)
    8000149c:	00000513          	li	a0,0
    800014a0:	ff1ff06f          	j	80001490 <strlen+0x34>

00000000800014a4 <main>:
// start() jumps here in supervisor mode on all CPUs.


void
main()
{
    800014a4:	ff010113          	addi	sp,sp,-16
    800014a8:	00113423          	sd	ra,8(sp)
    800014ac:	00813023          	sd	s0,0(sp)
    800014b0:	01010413          	addi	s0,sp,16
  if(cpuid() == 0){
    800014b4:	00001097          	auipc	ra,0x1
    800014b8:	1e4080e7          	jalr	484(ra) # 80002698 <cpuid>

    printf("__sync_synchronize start \n");
    __sync_synchronize();
    started = 1;
  } else {
    while(started == 0)
    800014bc:	00009717          	auipc	a4,0x9
    800014c0:	4f470713          	addi	a4,a4,1268 # 8000a9b0 <started>
  if(cpuid() == 0){
    800014c4:	04050863          	beqz	a0,80001514 <main+0x70>
    while(started == 0)
    800014c8:	00072783          	lw	a5,0(a4)
    800014cc:	0007879b          	sext.w	a5,a5
    800014d0:	fe078ce3          	beqz	a5,800014c8 <main+0x24>
      ;
    __sync_synchronize();
    800014d4:	0ff0000f          	fence
    printf("hart %d starting\n", cpuid());
    800014d8:	00001097          	auipc	ra,0x1
    800014dc:	1c0080e7          	jalr	448(ra) # 80002698 <cpuid>
    800014e0:	00050593          	mv	a1,a0
    800014e4:	00009517          	auipc	a0,0x9
    800014e8:	d3c50513          	addi	a0,a0,-708 # 8000a220 <digits+0x1e8>
    800014ec:	fffff097          	auipc	ra,0xfffff
    800014f0:	1bc080e7          	jalr	444(ra) # 800006a8 <printf>
    kvminithart();    // turn on paging
    800014f4:	00000097          	auipc	ra,0x0
    800014f8:	1bc080e7          	jalr	444(ra) # 800016b0 <kvminithart>
    trapinithart();   // install kernel trap vector
    800014fc:	00002097          	auipc	ra,0x2
    80001500:	3fc080e7          	jalr	1020(ra) # 800038f8 <trapinithart>
    plicinithart();   // ask PLIC for device interrupts
    80001504:	00007097          	auipc	ra,0x7
    80001508:	e84080e7          	jalr	-380(ra) # 80008388 <plicinithart>
  }

  scheduler();        
    8000150c:	00002097          	auipc	ra,0x2
    80001510:	920080e7          	jalr	-1760(ra) # 80002e2c <scheduler>
    consoleinit();          
    80001514:	fffff097          	auipc	ra,0xfffff
    80001518:	064080e7          	jalr	100(ra) # 80000578 <consoleinit>
    printfinit();           
    8000151c:	fffff097          	auipc	ra,0xfffff
    80001520:	5bc080e7          	jalr	1468(ra) # 80000ad8 <printfinit>
    printf("\n");             
    80001524:	00009517          	auipc	a0,0x9
    80001528:	d0c50513          	addi	a0,a0,-756 # 8000a230 <digits+0x1f8>
    8000152c:	fffff097          	auipc	ra,0xfffff
    80001530:	17c080e7          	jalr	380(ra) # 800006a8 <printf>
    printf("xv6 kernel is booting\n");     
    80001534:	00009517          	auipc	a0,0x9
    80001538:	b9450513          	addi	a0,a0,-1132 # 8000a0c8 <digits+0x90>
    8000153c:	fffff097          	auipc	ra,0xfffff
    80001540:	16c080e7          	jalr	364(ra) # 800006a8 <printf>
    printf("\n");  
    80001544:	00009517          	auipc	a0,0x9
    80001548:	cec50513          	addi	a0,a0,-788 # 8000a230 <digits+0x1f8>
    8000154c:	fffff097          	auipc	ra,0xfffff
    80001550:	15c080e7          	jalr	348(ra) # 800006a8 <printf>
    printf("kinit start \n");
    80001554:	00009517          	auipc	a0,0x9
    80001558:	b8c50513          	addi	a0,a0,-1140 # 8000a0e0 <digits+0xa8>
    8000155c:	fffff097          	auipc	ra,0xfffff
    80001560:	14c080e7          	jalr	332(ra) # 800006a8 <printf>
    kinit();         // physical page allocator，   
    80001564:	00000097          	auipc	ra,0x0
    80001568:	978080e7          	jalr	-1672(ra) # 80000edc <kinit>
    printf("kvminit start \n");
    8000156c:	00009517          	auipc	a0,0x9
    80001570:	b8450513          	addi	a0,a0,-1148 # 8000a0f0 <digits+0xb8>
    80001574:	fffff097          	auipc	ra,0xfffff
    80001578:	134080e7          	jalr	308(ra) # 800006a8 <printf>
    kvminit();       // create kernel page table
    8000157c:	00000097          	auipc	ra,0x0
    80001580:	568080e7          	jalr	1384(ra) # 80001ae4 <kvminit>
    printf("kvminithart start \n");
    80001584:	00009517          	auipc	a0,0x9
    80001588:	b7c50513          	addi	a0,a0,-1156 # 8000a100 <digits+0xc8>
    8000158c:	fffff097          	auipc	ra,0xfffff
    80001590:	11c080e7          	jalr	284(ra) # 800006a8 <printf>
    kvminithart();   // turn on paging             //------->
    80001594:	00000097          	auipc	ra,0x0
    80001598:	11c080e7          	jalr	284(ra) # 800016b0 <kvminithart>
    printf("procinit start \n");
    8000159c:	00009517          	auipc	a0,0x9
    800015a0:	b7c50513          	addi	a0,a0,-1156 # 8000a118 <digits+0xe0>
    800015a4:	fffff097          	auipc	ra,0xfffff
    800015a8:	104080e7          	jalr	260(ra) # 800006a8 <printf>
    procinit();      // process table
    800015ac:	00001097          	auipc	ra,0x1
    800015b0:	000080e7          	jalr	ra # 800025ac <procinit>
    printf("trapinit start \n");
    800015b4:	00009517          	auipc	a0,0x9
    800015b8:	b7c50513          	addi	a0,a0,-1156 # 8000a130 <digits+0xf8>
    800015bc:	fffff097          	auipc	ra,0xfffff
    800015c0:	0ec080e7          	jalr	236(ra) # 800006a8 <printf>
    trapinit();      // trap vectors
    800015c4:	00002097          	auipc	ra,0x2
    800015c8:	2fc080e7          	jalr	764(ra) # 800038c0 <trapinit>
    printf("trapinithart start \n");
    800015cc:	00009517          	auipc	a0,0x9
    800015d0:	b7c50513          	addi	a0,a0,-1156 # 8000a148 <digits+0x110>
    800015d4:	fffff097          	auipc	ra,0xfffff
    800015d8:	0d4080e7          	jalr	212(ra) # 800006a8 <printf>
    trapinithart();  // install kernel trap vector
    800015dc:	00002097          	auipc	ra,0x2
    800015e0:	31c080e7          	jalr	796(ra) # 800038f8 <trapinithart>
    printf("plicinit start \n");
    800015e4:	00009517          	auipc	a0,0x9
    800015e8:	b7c50513          	addi	a0,a0,-1156 # 8000a160 <digits+0x128>
    800015ec:	fffff097          	auipc	ra,0xfffff
    800015f0:	0bc080e7          	jalr	188(ra) # 800006a8 <printf>
    plicinit();      // set up interrupt controller
    800015f4:	00007097          	auipc	ra,0x7
    800015f8:	d6c080e7          	jalr	-660(ra) # 80008360 <plicinit>
    printf("plicinithart start \n");
    800015fc:	00009517          	auipc	a0,0x9
    80001600:	b7c50513          	addi	a0,a0,-1156 # 8000a178 <digits+0x140>
    80001604:	fffff097          	auipc	ra,0xfffff
    80001608:	0a4080e7          	jalr	164(ra) # 800006a8 <printf>
    plicinithart();  // ask PLIC for device interrupts
    8000160c:	00007097          	auipc	ra,0x7
    80001610:	d7c080e7          	jalr	-644(ra) # 80008388 <plicinithart>
    printf("binit start \n");
    80001614:	00009517          	auipc	a0,0x9
    80001618:	b7c50513          	addi	a0,a0,-1156 # 8000a190 <digits+0x158>
    8000161c:	fffff097          	auipc	ra,0xfffff
    80001620:	08c080e7          	jalr	140(ra) # 800006a8 <printf>
    binit();         // buffer cache
    80001624:	00003097          	auipc	ra,0x3
    80001628:	d70080e7          	jalr	-656(ra) # 80004394 <binit>
    printf("iinit start \n");
    8000162c:	00009517          	auipc	a0,0x9
    80001630:	b7450513          	addi	a0,a0,-1164 # 8000a1a0 <digits+0x168>
    80001634:	fffff097          	auipc	ra,0xfffff
    80001638:	074080e7          	jalr	116(ra) # 800006a8 <printf>
    iinit();         // inode table
    8000163c:	00003097          	auipc	ra,0x3
    80001640:	59c080e7          	jalr	1436(ra) # 80004bd8 <iinit>
    printf("fileinit start \n");
    80001644:	00009517          	auipc	a0,0x9
    80001648:	b6c50513          	addi	a0,a0,-1172 # 8000a1b0 <digits+0x178>
    8000164c:	fffff097          	auipc	ra,0xfffff
    80001650:	05c080e7          	jalr	92(ra) # 800006a8 <printf>
    fileinit();      // file table
    80001654:	00005097          	auipc	ra,0x5
    80001658:	d8c080e7          	jalr	-628(ra) # 800063e0 <fileinit>
    printf("virtio_disk_init start \n");
    8000165c:	00009517          	auipc	a0,0x9
    80001660:	b6c50513          	addi	a0,a0,-1172 # 8000a1c8 <digits+0x190>
    80001664:	fffff097          	auipc	ra,0xfffff
    80001668:	044080e7          	jalr	68(ra) # 800006a8 <printf>
    virtio_disk_init(); // emulated hard disk
    8000166c:	00007097          	auipc	ra,0x7
    80001670:	e88080e7          	jalr	-376(ra) # 800084f4 <virtio_disk_init>
    printf("userinit start \n");
    80001674:	00009517          	auipc	a0,0x9
    80001678:	b7450513          	addi	a0,a0,-1164 # 8000a1e8 <digits+0x1b0>
    8000167c:	fffff097          	auipc	ra,0xfffff
    80001680:	02c080e7          	jalr	44(ra) # 800006a8 <printf>
    userinit();      // first user process
    80001684:	00001097          	auipc	ra,0x1
    80001688:	514080e7          	jalr	1300(ra) # 80002b98 <userinit>
    printf("__sync_synchronize start \n");
    8000168c:	00009517          	auipc	a0,0x9
    80001690:	b7450513          	addi	a0,a0,-1164 # 8000a200 <digits+0x1c8>
    80001694:	fffff097          	auipc	ra,0xfffff
    80001698:	014080e7          	jalr	20(ra) # 800006a8 <printf>
    __sync_synchronize();
    8000169c:	0ff0000f          	fence
    started = 1;
    800016a0:	00100793          	li	a5,1
    800016a4:	00009717          	auipc	a4,0x9
    800016a8:	30f72623          	sw	a5,780(a4) # 8000a9b0 <started>
    800016ac:	e61ff06f          	j	8000150c <main+0x68>

00000000800016b0 <kvminithart>:

// Switch the current CPU's h/w page table register to
// the kernel's page table, and enable paging.
void
kvminithart()
{
    800016b0:	ff010113          	addi	sp,sp,-16
    800016b4:	00813423          	sd	s0,8(sp)
    800016b8:	01010413          	addi	s0,sp,16
// flush the TLB.
static inline void
sfence_vma()
{
  // the zero, zero means flush all TLB entries.
  asm volatile("sfence.vma zero, zero");
    800016bc:	12000073          	sfence.vma
  // wait for any previous writes to the page table memory to finish.
  sfence_vma();

  w_satp(MAKE_SATP(kernel_pagetable));
    800016c0:	00009797          	auipc	a5,0x9
    800016c4:	2f87b783          	ld	a5,760(a5) # 8000a9b8 <kernel_pagetable>
    800016c8:	00c7d793          	srli	a5,a5,0xc
    800016cc:	fff00713          	li	a4,-1
    800016d0:	03f71713          	slli	a4,a4,0x3f
    800016d4:	00e7e7b3          	or	a5,a5,a4
  asm volatile("csrw satp, %0" : : "r" (x));
    800016d8:	18079073          	csrw	satp,a5
  asm volatile("sfence.vma zero, zero");
    800016dc:	12000073          	sfence.vma

  // flush stale entries from the TLB.
  sfence_vma();
}
    800016e0:	00813403          	ld	s0,8(sp)
    800016e4:	01010113          	addi	sp,sp,16
    800016e8:	00008067          	ret

00000000800016ec <walk>:
//   21..29 -- 9 bits of level-1 index.
//   12..20 -- 9 bits of level-0 index.
//    0..11 -- 12 bits of byte offset within the page.
pte_t *
walk(pagetable_t pagetable, uint64 va, int alloc)
{
    800016ec:	fc010113          	addi	sp,sp,-64
    800016f0:	02113c23          	sd	ra,56(sp)
    800016f4:	02813823          	sd	s0,48(sp)
    800016f8:	02913423          	sd	s1,40(sp)
    800016fc:	03213023          	sd	s2,32(sp)
    80001700:	01313c23          	sd	s3,24(sp)
    80001704:	01413823          	sd	s4,16(sp)
    80001708:	01513423          	sd	s5,8(sp)
    8000170c:	01613023          	sd	s6,0(sp)
    80001710:	04010413          	addi	s0,sp,64
    80001714:	00050493          	mv	s1,a0
    80001718:	00058993          	mv	s3,a1
    8000171c:	00060a93          	mv	s5,a2
  if(va >= MAXVA)
    80001720:	fff00793          	li	a5,-1
    80001724:	01a7d793          	srli	a5,a5,0x1a
    80001728:	01e00a13          	li	s4,30
    panic("walk");

  for(int level = 2; level > 0; level--) {
    8000172c:	00c00b13          	li	s6,12
  if(va >= MAXVA)
    80001730:	04b7f863          	bgeu	a5,a1,80001780 <walk+0x94>
    panic("walk");
    80001734:	00009517          	auipc	a0,0x9
    80001738:	b0450513          	addi	a0,a0,-1276 # 8000a238 <digits+0x200>
    8000173c:	fffff097          	auipc	ra,0xfffff
    80001740:	344080e7          	jalr	836(ra) # 80000a80 <panic>
    pte_t *pte = &pagetable[PX(level, va)];
    if(*pte & PTE_V) {
      pagetable = (pagetable_t)PTE2PA(*pte);
    } else {
      if(!alloc || (pagetable = (pde_t*)kalloc()) == 0)
    80001744:	080a8e63          	beqz	s5,800017e0 <walk+0xf4>
    80001748:	00000097          	auipc	ra,0x0
    8000174c:	804080e7          	jalr	-2044(ra) # 80000f4c <kalloc>
    80001750:	00050493          	mv	s1,a0
    80001754:	06050263          	beqz	a0,800017b8 <walk+0xcc>
        return 0;
      memset(pagetable, 0, PGSIZE);
    80001758:	00001637          	lui	a2,0x1
    8000175c:	00000593          	li	a1,0
    80001760:	00000097          	auipc	ra,0x0
    80001764:	ab0080e7          	jalr	-1360(ra) # 80001210 <memset>
      *pte = PA2PTE(pagetable) | PTE_V;
    80001768:	00c4d793          	srli	a5,s1,0xc
    8000176c:	00a79793          	slli	a5,a5,0xa
    80001770:	0017e793          	ori	a5,a5,1
    80001774:	00f93023          	sd	a5,0(s2)
  for(int level = 2; level > 0; level--) {
    80001778:	ff7a0a1b          	addiw	s4,s4,-9 # ffffffffffffeff7 <end+0xffffffff7ffdb31f>
    8000177c:	036a0663          	beq	s4,s6,800017a8 <walk+0xbc>
    pte_t *pte = &pagetable[PX(level, va)];
    80001780:	0149d933          	srl	s2,s3,s4
    80001784:	1ff97913          	andi	s2,s2,511
    80001788:	00391913          	slli	s2,s2,0x3
    8000178c:	01248933          	add	s2,s1,s2
    if(*pte & PTE_V) {
    80001790:	00093483          	ld	s1,0(s2)
    80001794:	0014f793          	andi	a5,s1,1
    80001798:	fa0786e3          	beqz	a5,80001744 <walk+0x58>
      pagetable = (pagetable_t)PTE2PA(*pte);
    8000179c:	00a4d493          	srli	s1,s1,0xa
    800017a0:	00c49493          	slli	s1,s1,0xc
    800017a4:	fd5ff06f          	j	80001778 <walk+0x8c>
    }
  }
  return &pagetable[PX(0, va)];
    800017a8:	00c9d513          	srli	a0,s3,0xc
    800017ac:	1ff57513          	andi	a0,a0,511
    800017b0:	00351513          	slli	a0,a0,0x3
    800017b4:	00a48533          	add	a0,s1,a0
}
    800017b8:	03813083          	ld	ra,56(sp)
    800017bc:	03013403          	ld	s0,48(sp)
    800017c0:	02813483          	ld	s1,40(sp)
    800017c4:	02013903          	ld	s2,32(sp)
    800017c8:	01813983          	ld	s3,24(sp)
    800017cc:	01013a03          	ld	s4,16(sp)
    800017d0:	00813a83          	ld	s5,8(sp)
    800017d4:	00013b03          	ld	s6,0(sp)
    800017d8:	04010113          	addi	sp,sp,64
    800017dc:	00008067          	ret
        return 0;
    800017e0:	00000513          	li	a0,0
    800017e4:	fd5ff06f          	j	800017b8 <walk+0xcc>

00000000800017e8 <walkaddr>:
walkaddr(pagetable_t pagetable, uint64 va)
{
  pte_t *pte;
  uint64 pa;

  if(va >= MAXVA)
    800017e8:	fff00793          	li	a5,-1
    800017ec:	01a7d793          	srli	a5,a5,0x1a
    800017f0:	00b7f663          	bgeu	a5,a1,800017fc <walkaddr+0x14>
    return 0;
    800017f4:	00000513          	li	a0,0
    return 0;
  if((*pte & PTE_U) == 0)
    return 0;
  pa = PTE2PA(*pte);
  return pa;
}
    800017f8:	00008067          	ret
{
    800017fc:	ff010113          	addi	sp,sp,-16
    80001800:	00113423          	sd	ra,8(sp)
    80001804:	00813023          	sd	s0,0(sp)
    80001808:	01010413          	addi	s0,sp,16
  pte = walk(pagetable, va, 0);
    8000180c:	00000613          	li	a2,0
    80001810:	00000097          	auipc	ra,0x0
    80001814:	edc080e7          	jalr	-292(ra) # 800016ec <walk>
  if(pte == 0)
    80001818:	02050a63          	beqz	a0,8000184c <walkaddr+0x64>
  if((*pte & PTE_V) == 0)
    8000181c:	00053783          	ld	a5,0(a0)
  if((*pte & PTE_U) == 0)
    80001820:	0117f693          	andi	a3,a5,17
    80001824:	01100713          	li	a4,17
    return 0;
    80001828:	00000513          	li	a0,0
  if((*pte & PTE_U) == 0)
    8000182c:	00e68a63          	beq	a3,a4,80001840 <walkaddr+0x58>
}
    80001830:	00813083          	ld	ra,8(sp)
    80001834:	00013403          	ld	s0,0(sp)
    80001838:	01010113          	addi	sp,sp,16
    8000183c:	00008067          	ret
  pa = PTE2PA(*pte);
    80001840:	00a7d793          	srli	a5,a5,0xa
    80001844:	00c79513          	slli	a0,a5,0xc
  return pa;
    80001848:	fe9ff06f          	j	80001830 <walkaddr+0x48>
    return 0;
    8000184c:	00000513          	li	a0,0
    80001850:	fe1ff06f          	j	80001830 <walkaddr+0x48>

0000000080001854 <mappages>:
// va and size MUST be page-aligned.
// Returns 0 on success, -1 if walk() couldn't
// allocate a needed page-table page.
int
mappages(pagetable_t pagetable, uint64 va, uint64 size, uint64 pa, int perm)
{
    80001854:	fb010113          	addi	sp,sp,-80
    80001858:	04113423          	sd	ra,72(sp)
    8000185c:	04813023          	sd	s0,64(sp)
    80001860:	02913c23          	sd	s1,56(sp)
    80001864:	03213823          	sd	s2,48(sp)
    80001868:	03313423          	sd	s3,40(sp)
    8000186c:	03413023          	sd	s4,32(sp)
    80001870:	01513c23          	sd	s5,24(sp)
    80001874:	01613823          	sd	s6,16(sp)
    80001878:	01713423          	sd	s7,8(sp)
    8000187c:	05010413          	addi	s0,sp,80
  uint64 a, last;
  pte_t *pte;

  if((va % PGSIZE) != 0)
    80001880:	03459793          	slli	a5,a1,0x34
    80001884:	06079c63          	bnez	a5,800018fc <mappages+0xa8>
    80001888:	00050a93          	mv	s5,a0
    8000188c:	00070b13          	mv	s6,a4
    panic("mappages: va not aligned");

  if((size % PGSIZE) != 0)
    80001890:	03461793          	slli	a5,a2,0x34
    80001894:	06079c63          	bnez	a5,8000190c <mappages+0xb8>
    panic("mappages: size not aligned");

  if(size == 0)
    80001898:	08060263          	beqz	a2,8000191c <mappages+0xc8>
    panic("mappages: size");
  
  a = va;
  last = va + size - PGSIZE;
    8000189c:	fffff7b7          	lui	a5,0xfffff
    800018a0:	00f60633          	add	a2,a2,a5
    800018a4:	00b609b3          	add	s3,a2,a1
  a = va;
    800018a8:	00058913          	mv	s2,a1
    800018ac:	40b68a33          	sub	s4,a3,a1
    if(*pte & PTE_V)
      panic("mappages: remap");
    *pte = PA2PTE(pa) | perm | PTE_V;
    if(a == last)
      break;
    a += PGSIZE;
    800018b0:	00001bb7          	lui	s7,0x1
    800018b4:	012a04b3          	add	s1,s4,s2
    if((pte = walk(pagetable, a, 1)) == 0)
    800018b8:	00100613          	li	a2,1
    800018bc:	00090593          	mv	a1,s2
    800018c0:	000a8513          	mv	a0,s5
    800018c4:	00000097          	auipc	ra,0x0
    800018c8:	e28080e7          	jalr	-472(ra) # 800016ec <walk>
    800018cc:	06050863          	beqz	a0,8000193c <mappages+0xe8>
    if(*pte & PTE_V)
    800018d0:	00053783          	ld	a5,0(a0)
    800018d4:	0017f793          	andi	a5,a5,1
    800018d8:	04079a63          	bnez	a5,8000192c <mappages+0xd8>
    *pte = PA2PTE(pa) | perm | PTE_V;
    800018dc:	00c4d493          	srli	s1,s1,0xc
    800018e0:	00a49493          	slli	s1,s1,0xa
    800018e4:	0164e4b3          	or	s1,s1,s6
    800018e8:	0014e493          	ori	s1,s1,1
    800018ec:	00953023          	sd	s1,0(a0)
    if(a == last)
    800018f0:	07390e63          	beq	s2,s3,8000196c <mappages+0x118>
    a += PGSIZE;
    800018f4:	01790933          	add	s2,s2,s7
    if((pte = walk(pagetable, a, 1)) == 0)
    800018f8:	fbdff06f          	j	800018b4 <mappages+0x60>
    panic("mappages: va not aligned");
    800018fc:	00009517          	auipc	a0,0x9
    80001900:	94450513          	addi	a0,a0,-1724 # 8000a240 <digits+0x208>
    80001904:	fffff097          	auipc	ra,0xfffff
    80001908:	17c080e7          	jalr	380(ra) # 80000a80 <panic>
    panic("mappages: size not aligned");
    8000190c:	00009517          	auipc	a0,0x9
    80001910:	95450513          	addi	a0,a0,-1708 # 8000a260 <digits+0x228>
    80001914:	fffff097          	auipc	ra,0xfffff
    80001918:	16c080e7          	jalr	364(ra) # 80000a80 <panic>
    panic("mappages: size");
    8000191c:	00009517          	auipc	a0,0x9
    80001920:	96450513          	addi	a0,a0,-1692 # 8000a280 <digits+0x248>
    80001924:	fffff097          	auipc	ra,0xfffff
    80001928:	15c080e7          	jalr	348(ra) # 80000a80 <panic>
      panic("mappages: remap");
    8000192c:	00009517          	auipc	a0,0x9
    80001930:	96450513          	addi	a0,a0,-1692 # 8000a290 <digits+0x258>
    80001934:	fffff097          	auipc	ra,0xfffff
    80001938:	14c080e7          	jalr	332(ra) # 80000a80 <panic>
      return -1;
    8000193c:	fff00513          	li	a0,-1
    pa += PGSIZE;
  }
  return 0;
}
    80001940:	04813083          	ld	ra,72(sp)
    80001944:	04013403          	ld	s0,64(sp)
    80001948:	03813483          	ld	s1,56(sp)
    8000194c:	03013903          	ld	s2,48(sp)
    80001950:	02813983          	ld	s3,40(sp)
    80001954:	02013a03          	ld	s4,32(sp)
    80001958:	01813a83          	ld	s5,24(sp)
    8000195c:	01013b03          	ld	s6,16(sp)
    80001960:	00813b83          	ld	s7,8(sp)
    80001964:	05010113          	addi	sp,sp,80
    80001968:	00008067          	ret
  return 0;
    8000196c:	00000513          	li	a0,0
    80001970:	fd1ff06f          	j	80001940 <mappages+0xec>

0000000080001974 <kvmmap>:
{
    80001974:	ff010113          	addi	sp,sp,-16
    80001978:	00113423          	sd	ra,8(sp)
    8000197c:	00813023          	sd	s0,0(sp)
    80001980:	01010413          	addi	s0,sp,16
    80001984:	00068793          	mv	a5,a3
  if(mappages(kpgtbl, va, sz, pa, perm) != 0)
    80001988:	00060693          	mv	a3,a2
    8000198c:	00078613          	mv	a2,a5
    80001990:	00000097          	auipc	ra,0x0
    80001994:	ec4080e7          	jalr	-316(ra) # 80001854 <mappages>
    80001998:	00051a63          	bnez	a0,800019ac <kvmmap+0x38>
}
    8000199c:	00813083          	ld	ra,8(sp)
    800019a0:	00013403          	ld	s0,0(sp)
    800019a4:	01010113          	addi	sp,sp,16
    800019a8:	00008067          	ret
    panic("kvmmap");
    800019ac:	00009517          	auipc	a0,0x9
    800019b0:	8f450513          	addi	a0,a0,-1804 # 8000a2a0 <digits+0x268>
    800019b4:	fffff097          	auipc	ra,0xfffff
    800019b8:	0cc080e7          	jalr	204(ra) # 80000a80 <panic>

00000000800019bc <kvmmake>:
{
    800019bc:	fe010113          	addi	sp,sp,-32
    800019c0:	00113c23          	sd	ra,24(sp)
    800019c4:	00813823          	sd	s0,16(sp)
    800019c8:	00913423          	sd	s1,8(sp)
    800019cc:	01213023          	sd	s2,0(sp)
    800019d0:	02010413          	addi	s0,sp,32
  kpgtbl = (pagetable_t) kalloc();
    800019d4:	fffff097          	auipc	ra,0xfffff
    800019d8:	578080e7          	jalr	1400(ra) # 80000f4c <kalloc>
    800019dc:	00050493          	mv	s1,a0
  memset(kpgtbl, 0, PGSIZE);
    800019e0:	00001637          	lui	a2,0x1
    800019e4:	00000593          	li	a1,0
    800019e8:	00000097          	auipc	ra,0x0
    800019ec:	828080e7          	jalr	-2008(ra) # 80001210 <memset>
  kvmmap(kpgtbl, UART0, UART0, PGSIZE, PTE_R | PTE_W);
    800019f0:	00600713          	li	a4,6
    800019f4:	000016b7          	lui	a3,0x1
    800019f8:	10000637          	lui	a2,0x10000
    800019fc:	100005b7          	lui	a1,0x10000
    80001a00:	00048513          	mv	a0,s1
    80001a04:	00000097          	auipc	ra,0x0
    80001a08:	f70080e7          	jalr	-144(ra) # 80001974 <kvmmap>
  kvmmap(kpgtbl, VIRTIO0, VIRTIO0, PGSIZE, PTE_R | PTE_W);
    80001a0c:	00600713          	li	a4,6
    80001a10:	000016b7          	lui	a3,0x1
    80001a14:	10001637          	lui	a2,0x10001
    80001a18:	100015b7          	lui	a1,0x10001
    80001a1c:	00048513          	mv	a0,s1
    80001a20:	00000097          	auipc	ra,0x0
    80001a24:	f54080e7          	jalr	-172(ra) # 80001974 <kvmmap>
  kvmmap(kpgtbl, PLIC, PLIC, 0x4000000, PTE_R | PTE_W);
    80001a28:	00600713          	li	a4,6
    80001a2c:	040006b7          	lui	a3,0x4000
    80001a30:	0c000637          	lui	a2,0xc000
    80001a34:	0c0005b7          	lui	a1,0xc000
    80001a38:	00048513          	mv	a0,s1
    80001a3c:	00000097          	auipc	ra,0x0
    80001a40:	f38080e7          	jalr	-200(ra) # 80001974 <kvmmap>
  kvmmap(kpgtbl, KERNBASE, KERNBASE, (uint64)etext-KERNBASE, PTE_R | PTE_X);
    80001a44:	00008917          	auipc	s2,0x8
    80001a48:	5bc90913          	addi	s2,s2,1468 # 8000a000 <etext>
    80001a4c:	00a00713          	li	a4,10
    80001a50:	80008697          	auipc	a3,0x80008
    80001a54:	5b068693          	addi	a3,a3,1456 # a000 <_entry-0x7fff6000>
    80001a58:	00100613          	li	a2,1
    80001a5c:	01f61613          	slli	a2,a2,0x1f
    80001a60:	00060593          	mv	a1,a2
    80001a64:	00048513          	mv	a0,s1
    80001a68:	00000097          	auipc	ra,0x0
    80001a6c:	f0c080e7          	jalr	-244(ra) # 80001974 <kvmmap>
  kvmmap(kpgtbl, (uint64)etext, (uint64)etext, PHYSTOP-(uint64)etext, PTE_R | PTE_W);
    80001a70:	00600713          	li	a4,6
    80001a74:	01100693          	li	a3,17
    80001a78:	01b69693          	slli	a3,a3,0x1b
    80001a7c:	412686b3          	sub	a3,a3,s2
    80001a80:	00090613          	mv	a2,s2
    80001a84:	00090593          	mv	a1,s2
    80001a88:	00048513          	mv	a0,s1
    80001a8c:	00000097          	auipc	ra,0x0
    80001a90:	ee8080e7          	jalr	-280(ra) # 80001974 <kvmmap>
  kvmmap(kpgtbl, TRAMPOLINE, (uint64)trampoline, PGSIZE, PTE_R | PTE_X);
    80001a94:	00a00713          	li	a4,10
    80001a98:	000016b7          	lui	a3,0x1
    80001a9c:	00007617          	auipc	a2,0x7
    80001aa0:	56460613          	addi	a2,a2,1380 # 80009000 <_trampoline>
    80001aa4:	040005b7          	lui	a1,0x4000
    80001aa8:	fff58593          	addi	a1,a1,-1 # 3ffffff <_entry-0x7c000001>
    80001aac:	00c59593          	slli	a1,a1,0xc
    80001ab0:	00048513          	mv	a0,s1
    80001ab4:	00000097          	auipc	ra,0x0
    80001ab8:	ec0080e7          	jalr	-320(ra) # 80001974 <kvmmap>
  proc_mapstacks(kpgtbl);
    80001abc:	00048513          	mv	a0,s1
    80001ac0:	00001097          	auipc	ra,0x1
    80001ac4:	a18080e7          	jalr	-1512(ra) # 800024d8 <proc_mapstacks>
}
    80001ac8:	00048513          	mv	a0,s1
    80001acc:	01813083          	ld	ra,24(sp)
    80001ad0:	01013403          	ld	s0,16(sp)
    80001ad4:	00813483          	ld	s1,8(sp)
    80001ad8:	00013903          	ld	s2,0(sp)
    80001adc:	02010113          	addi	sp,sp,32
    80001ae0:	00008067          	ret

0000000080001ae4 <kvminit>:
{
    80001ae4:	ff010113          	addi	sp,sp,-16
    80001ae8:	00113423          	sd	ra,8(sp)
    80001aec:	00813023          	sd	s0,0(sp)
    80001af0:	01010413          	addi	s0,sp,16
  kernel_pagetable = kvmmake();
    80001af4:	00000097          	auipc	ra,0x0
    80001af8:	ec8080e7          	jalr	-312(ra) # 800019bc <kvmmake>
    80001afc:	00009797          	auipc	a5,0x9
    80001b00:	eaa7be23          	sd	a0,-324(a5) # 8000a9b8 <kernel_pagetable>
}
    80001b04:	00813083          	ld	ra,8(sp)
    80001b08:	00013403          	ld	s0,0(sp)
    80001b0c:	01010113          	addi	sp,sp,16
    80001b10:	00008067          	ret

0000000080001b14 <uvmcreate>:

// create an empty user page table.
// returns 0 if out of memory.
pagetable_t
uvmcreate()
{
    80001b14:	fe010113          	addi	sp,sp,-32
    80001b18:	00113c23          	sd	ra,24(sp)
    80001b1c:	00813823          	sd	s0,16(sp)
    80001b20:	00913423          	sd	s1,8(sp)
    80001b24:	02010413          	addi	s0,sp,32
  pagetable_t pagetable;
  pagetable = (pagetable_t) kalloc();
    80001b28:	fffff097          	auipc	ra,0xfffff
    80001b2c:	424080e7          	jalr	1060(ra) # 80000f4c <kalloc>
    80001b30:	00050493          	mv	s1,a0
  if(pagetable == 0)
    80001b34:	00050a63          	beqz	a0,80001b48 <uvmcreate+0x34>
    return 0;
  memset(pagetable, 0, PGSIZE);
    80001b38:	00001637          	lui	a2,0x1
    80001b3c:	00000593          	li	a1,0
    80001b40:	fffff097          	auipc	ra,0xfffff
    80001b44:	6d0080e7          	jalr	1744(ra) # 80001210 <memset>
  return pagetable;
}
    80001b48:	00048513          	mv	a0,s1
    80001b4c:	01813083          	ld	ra,24(sp)
    80001b50:	01013403          	ld	s0,16(sp)
    80001b54:	00813483          	ld	s1,8(sp)
    80001b58:	02010113          	addi	sp,sp,32
    80001b5c:	00008067          	ret

0000000080001b60 <uvmunmap>:
// Remove npages of mappings starting from va. va must be
// page-aligned. It's OK if the mappings don't exist.
// Optionally free the physical memory.
void
uvmunmap(pagetable_t pagetable, uint64 va, uint64 npages, int do_free)
{
    80001b60:	fc010113          	addi	sp,sp,-64
    80001b64:	02113c23          	sd	ra,56(sp)
    80001b68:	02813823          	sd	s0,48(sp)
    80001b6c:	02913423          	sd	s1,40(sp)
    80001b70:	03213023          	sd	s2,32(sp)
    80001b74:	01313c23          	sd	s3,24(sp)
    80001b78:	01413823          	sd	s4,16(sp)
    80001b7c:	01513423          	sd	s5,8(sp)
    80001b80:	01613023          	sd	s6,0(sp)
    80001b84:	04010413          	addi	s0,sp,64
  uint64 a;
  pte_t *pte;

  if((va % PGSIZE) != 0)
    80001b88:	03459793          	slli	a5,a1,0x34
    80001b8c:	04079463          	bnez	a5,80001bd4 <uvmunmap+0x74>
    80001b90:	00050a13          	mv	s4,a0
    80001b94:	00058913          	mv	s2,a1
    80001b98:	00068a93          	mv	s5,a3
    panic("uvmunmap: not aligned");

  for(a = va; a < va + npages*PGSIZE; a += PGSIZE){
    80001b9c:	00c61613          	slli	a2,a2,0xc
    80001ba0:	00b609b3          	add	s3,a2,a1
    80001ba4:	00001b37          	lui	s6,0x1
    80001ba8:	0535e463          	bltu	a1,s3,80001bf0 <uvmunmap+0x90>
      uint64 pa = PTE2PA(*pte);
      kfree((void*)pa);
    }
    *pte = 0;
  }
}
    80001bac:	03813083          	ld	ra,56(sp)
    80001bb0:	03013403          	ld	s0,48(sp)
    80001bb4:	02813483          	ld	s1,40(sp)
    80001bb8:	02013903          	ld	s2,32(sp)
    80001bbc:	01813983          	ld	s3,24(sp)
    80001bc0:	01013a03          	ld	s4,16(sp)
    80001bc4:	00813a83          	ld	s5,8(sp)
    80001bc8:	00013b03          	ld	s6,0(sp)
    80001bcc:	04010113          	addi	sp,sp,64
    80001bd0:	00008067          	ret
    panic("uvmunmap: not aligned");
    80001bd4:	00008517          	auipc	a0,0x8
    80001bd8:	6d450513          	addi	a0,a0,1748 # 8000a2a8 <digits+0x270>
    80001bdc:	fffff097          	auipc	ra,0xfffff
    80001be0:	ea4080e7          	jalr	-348(ra) # 80000a80 <panic>
    *pte = 0;
    80001be4:	0004b023          	sd	zero,0(s1)
  for(a = va; a < va + npages*PGSIZE; a += PGSIZE){
    80001be8:	01690933          	add	s2,s2,s6
    80001bec:	fd3970e3          	bgeu	s2,s3,80001bac <uvmunmap+0x4c>
    if((pte = walk(pagetable, a, 0)) == 0) // leaf page table entry allocated?
    80001bf0:	00000613          	li	a2,0
    80001bf4:	00090593          	mv	a1,s2
    80001bf8:	000a0513          	mv	a0,s4
    80001bfc:	00000097          	auipc	ra,0x0
    80001c00:	af0080e7          	jalr	-1296(ra) # 800016ec <walk>
    80001c04:	00050493          	mv	s1,a0
    80001c08:	fe0500e3          	beqz	a0,80001be8 <uvmunmap+0x88>
    if((*pte & PTE_V) == 0)  // has physical page been allocated?
    80001c0c:	00053783          	ld	a5,0(a0)
    80001c10:	0017f713          	andi	a4,a5,1
    80001c14:	fc070ae3          	beqz	a4,80001be8 <uvmunmap+0x88>
    if(do_free){
    80001c18:	fc0a86e3          	beqz	s5,80001be4 <uvmunmap+0x84>
      uint64 pa = PTE2PA(*pte);
    80001c1c:	00a7d793          	srli	a5,a5,0xa
      kfree((void*)pa);
    80001c20:	00c79513          	slli	a0,a5,0xc
    80001c24:	fffff097          	auipc	ra,0xfffff
    80001c28:	19c080e7          	jalr	412(ra) # 80000dc0 <kfree>
    80001c2c:	fb9ff06f          	j	80001be4 <uvmunmap+0x84>

0000000080001c30 <uvmdealloc>:
// newsz.  oldsz and newsz need not be page-aligned, nor does newsz
// need to be less than oldsz.  oldsz can be larger than the actual
// process size.  Returns the new process size.
uint64
uvmdealloc(pagetable_t pagetable, uint64 oldsz, uint64 newsz)
{
    80001c30:	fe010113          	addi	sp,sp,-32
    80001c34:	00113c23          	sd	ra,24(sp)
    80001c38:	00813823          	sd	s0,16(sp)
    80001c3c:	00913423          	sd	s1,8(sp)
    80001c40:	02010413          	addi	s0,sp,32
  if(newsz >= oldsz)
    return oldsz;
    80001c44:	00058493          	mv	s1,a1
  if(newsz >= oldsz)
    80001c48:	02b67463          	bgeu	a2,a1,80001c70 <uvmdealloc+0x40>
    80001c4c:	00060493          	mv	s1,a2

  if(PGROUNDUP(newsz) < PGROUNDUP(oldsz)){
    80001c50:	000017b7          	lui	a5,0x1
    80001c54:	fff78793          	addi	a5,a5,-1 # fff <_entry-0x7ffff001>
    80001c58:	00f60733          	add	a4,a2,a5
    80001c5c:	fffff6b7          	lui	a3,0xfffff
    80001c60:	00d77733          	and	a4,a4,a3
    80001c64:	00f587b3          	add	a5,a1,a5
    80001c68:	00d7f7b3          	and	a5,a5,a3
    80001c6c:	00f76e63          	bltu	a4,a5,80001c88 <uvmdealloc+0x58>
    int npages = (PGROUNDUP(oldsz) - PGROUNDUP(newsz)) / PGSIZE;
    uvmunmap(pagetable, PGROUNDUP(newsz), npages, 1);
  }

  return newsz;
}
    80001c70:	00048513          	mv	a0,s1
    80001c74:	01813083          	ld	ra,24(sp)
    80001c78:	01013403          	ld	s0,16(sp)
    80001c7c:	00813483          	ld	s1,8(sp)
    80001c80:	02010113          	addi	sp,sp,32
    80001c84:	00008067          	ret
    int npages = (PGROUNDUP(oldsz) - PGROUNDUP(newsz)) / PGSIZE;
    80001c88:	40e787b3          	sub	a5,a5,a4
    80001c8c:	00c7d793          	srli	a5,a5,0xc
    uvmunmap(pagetable, PGROUNDUP(newsz), npages, 1);
    80001c90:	00100693          	li	a3,1
    80001c94:	0007861b          	sext.w	a2,a5
    80001c98:	00070593          	mv	a1,a4
    80001c9c:	00000097          	auipc	ra,0x0
    80001ca0:	ec4080e7          	jalr	-316(ra) # 80001b60 <uvmunmap>
    80001ca4:	fcdff06f          	j	80001c70 <uvmdealloc+0x40>

0000000080001ca8 <uvmalloc>:
  if(newsz < oldsz)
    80001ca8:	10b66863          	bltu	a2,a1,80001db8 <uvmalloc+0x110>
{
    80001cac:	fc010113          	addi	sp,sp,-64
    80001cb0:	02113c23          	sd	ra,56(sp)
    80001cb4:	02813823          	sd	s0,48(sp)
    80001cb8:	02913423          	sd	s1,40(sp)
    80001cbc:	03213023          	sd	s2,32(sp)
    80001cc0:	01313c23          	sd	s3,24(sp)
    80001cc4:	01413823          	sd	s4,16(sp)
    80001cc8:	01513423          	sd	s5,8(sp)
    80001ccc:	01613023          	sd	s6,0(sp)
    80001cd0:	04010413          	addi	s0,sp,64
    80001cd4:	00050a93          	mv	s5,a0
    80001cd8:	00060a13          	mv	s4,a2
  oldsz = PGROUNDUP(oldsz);
    80001cdc:	000017b7          	lui	a5,0x1
    80001ce0:	fff78793          	addi	a5,a5,-1 # fff <_entry-0x7ffff001>
    80001ce4:	00f585b3          	add	a1,a1,a5
    80001ce8:	fffff7b7          	lui	a5,0xfffff
    80001cec:	00f5f9b3          	and	s3,a1,a5
  for(a = oldsz; a < newsz; a += PGSIZE){
    80001cf0:	0cc9f863          	bgeu	s3,a2,80001dc0 <uvmalloc+0x118>
    80001cf4:	00098913          	mv	s2,s3
    if(mappages(pagetable, a, PGSIZE, (uint64)mem, PTE_R|PTE_U|xperm) != 0){
    80001cf8:	0126eb13          	ori	s6,a3,18
    mem = kalloc();
    80001cfc:	fffff097          	auipc	ra,0xfffff
    80001d00:	250080e7          	jalr	592(ra) # 80000f4c <kalloc>
    80001d04:	00050493          	mv	s1,a0
    if(mem == 0){
    80001d08:	04050463          	beqz	a0,80001d50 <uvmalloc+0xa8>
    memset(mem, 0, PGSIZE);
    80001d0c:	00001637          	lui	a2,0x1
    80001d10:	00000593          	li	a1,0
    80001d14:	fffff097          	auipc	ra,0xfffff
    80001d18:	4fc080e7          	jalr	1276(ra) # 80001210 <memset>
    if(mappages(pagetable, a, PGSIZE, (uint64)mem, PTE_R|PTE_U|xperm) != 0){
    80001d1c:	000b0713          	mv	a4,s6
    80001d20:	00048693          	mv	a3,s1
    80001d24:	00001637          	lui	a2,0x1
    80001d28:	00090593          	mv	a1,s2
    80001d2c:	000a8513          	mv	a0,s5
    80001d30:	00000097          	auipc	ra,0x0
    80001d34:	b24080e7          	jalr	-1244(ra) # 80001854 <mappages>
    80001d38:	04051c63          	bnez	a0,80001d90 <uvmalloc+0xe8>
  for(a = oldsz; a < newsz; a += PGSIZE){
    80001d3c:	000017b7          	lui	a5,0x1
    80001d40:	00f90933          	add	s2,s2,a5
    80001d44:	fb496ce3          	bltu	s2,s4,80001cfc <uvmalloc+0x54>
  return newsz;
    80001d48:	000a0513          	mv	a0,s4
    80001d4c:	01c0006f          	j	80001d68 <uvmalloc+0xc0>
      uvmdealloc(pagetable, a, oldsz);
    80001d50:	00098613          	mv	a2,s3
    80001d54:	00090593          	mv	a1,s2
    80001d58:	000a8513          	mv	a0,s5
    80001d5c:	00000097          	auipc	ra,0x0
    80001d60:	ed4080e7          	jalr	-300(ra) # 80001c30 <uvmdealloc>
      return 0;
    80001d64:	00000513          	li	a0,0
}
    80001d68:	03813083          	ld	ra,56(sp)
    80001d6c:	03013403          	ld	s0,48(sp)
    80001d70:	02813483          	ld	s1,40(sp)
    80001d74:	02013903          	ld	s2,32(sp)
    80001d78:	01813983          	ld	s3,24(sp)
    80001d7c:	01013a03          	ld	s4,16(sp)
    80001d80:	00813a83          	ld	s5,8(sp)
    80001d84:	00013b03          	ld	s6,0(sp)
    80001d88:	04010113          	addi	sp,sp,64
    80001d8c:	00008067          	ret
      kfree(mem);
    80001d90:	00048513          	mv	a0,s1
    80001d94:	fffff097          	auipc	ra,0xfffff
    80001d98:	02c080e7          	jalr	44(ra) # 80000dc0 <kfree>
      uvmdealloc(pagetable, a, oldsz);
    80001d9c:	00098613          	mv	a2,s3
    80001da0:	00090593          	mv	a1,s2
    80001da4:	000a8513          	mv	a0,s5
    80001da8:	00000097          	auipc	ra,0x0
    80001dac:	e88080e7          	jalr	-376(ra) # 80001c30 <uvmdealloc>
      return 0;
    80001db0:	00000513          	li	a0,0
    80001db4:	fb5ff06f          	j	80001d68 <uvmalloc+0xc0>
    return oldsz;
    80001db8:	00058513          	mv	a0,a1
}
    80001dbc:	00008067          	ret
  return newsz;
    80001dc0:	00060513          	mv	a0,a2
    80001dc4:	fa5ff06f          	j	80001d68 <uvmalloc+0xc0>

0000000080001dc8 <freewalk>:

// Recursively free page-table pages.
// All leaf mappings must already have been removed.
void
freewalk(pagetable_t pagetable)
{
    80001dc8:	fd010113          	addi	sp,sp,-48
    80001dcc:	02113423          	sd	ra,40(sp)
    80001dd0:	02813023          	sd	s0,32(sp)
    80001dd4:	00913c23          	sd	s1,24(sp)
    80001dd8:	01213823          	sd	s2,16(sp)
    80001ddc:	01313423          	sd	s3,8(sp)
    80001de0:	01413023          	sd	s4,0(sp)
    80001de4:	03010413          	addi	s0,sp,48
    80001de8:	00050a13          	mv	s4,a0
  // there are 2^9 = 512 PTEs in a page table.
  for(int i = 0; i < 512; i++){
    80001dec:	00050493          	mv	s1,a0
    80001df0:	00001937          	lui	s2,0x1
    80001df4:	01250933          	add	s2,a0,s2
    pte_t pte = pagetable[i];
    if((pte & PTE_V) && (pte & (PTE_R|PTE_W|PTE_X)) == 0){
    80001df8:	00100993          	li	s3,1
    80001dfc:	0200006f          	j	80001e1c <freewalk+0x54>
      // this PTE points to a lower-level page table.
      uint64 child = PTE2PA(pte);
    80001e00:	00a7d793          	srli	a5,a5,0xa
      freewalk((pagetable_t)child);
    80001e04:	00c79513          	slli	a0,a5,0xc
    80001e08:	00000097          	auipc	ra,0x0
    80001e0c:	fc0080e7          	jalr	-64(ra) # 80001dc8 <freewalk>
      pagetable[i] = 0;
    80001e10:	0004b023          	sd	zero,0(s1)
  for(int i = 0; i < 512; i++){
    80001e14:	00848493          	addi	s1,s1,8
    80001e18:	03248463          	beq	s1,s2,80001e40 <freewalk+0x78>
    pte_t pte = pagetable[i];
    80001e1c:	0004b783          	ld	a5,0(s1)
    if((pte & PTE_V) && (pte & (PTE_R|PTE_W|PTE_X)) == 0){
    80001e20:	00f7f713          	andi	a4,a5,15
    80001e24:	fd370ee3          	beq	a4,s3,80001e00 <freewalk+0x38>
    } else if(pte & PTE_V){
    80001e28:	0017f793          	andi	a5,a5,1
    80001e2c:	fe0784e3          	beqz	a5,80001e14 <freewalk+0x4c>
      panic("freewalk: leaf");
    80001e30:	00008517          	auipc	a0,0x8
    80001e34:	49050513          	addi	a0,a0,1168 # 8000a2c0 <digits+0x288>
    80001e38:	fffff097          	auipc	ra,0xfffff
    80001e3c:	c48080e7          	jalr	-952(ra) # 80000a80 <panic>
    }
  }
  kfree((void*)pagetable);
    80001e40:	000a0513          	mv	a0,s4
    80001e44:	fffff097          	auipc	ra,0xfffff
    80001e48:	f7c080e7          	jalr	-132(ra) # 80000dc0 <kfree>
}
    80001e4c:	02813083          	ld	ra,40(sp)
    80001e50:	02013403          	ld	s0,32(sp)
    80001e54:	01813483          	ld	s1,24(sp)
    80001e58:	01013903          	ld	s2,16(sp)
    80001e5c:	00813983          	ld	s3,8(sp)
    80001e60:	00013a03          	ld	s4,0(sp)
    80001e64:	03010113          	addi	sp,sp,48
    80001e68:	00008067          	ret

0000000080001e6c <uvmfree>:

// Free user memory pages,
// then free page-table pages.
void
uvmfree(pagetable_t pagetable, uint64 sz)
{
    80001e6c:	fe010113          	addi	sp,sp,-32
    80001e70:	00113c23          	sd	ra,24(sp)
    80001e74:	00813823          	sd	s0,16(sp)
    80001e78:	00913423          	sd	s1,8(sp)
    80001e7c:	02010413          	addi	s0,sp,32
    80001e80:	00050493          	mv	s1,a0
  if(sz > 0)
    80001e84:	02059263          	bnez	a1,80001ea8 <uvmfree+0x3c>
    uvmunmap(pagetable, 0, PGROUNDUP(sz)/PGSIZE, 1);
  freewalk(pagetable);
    80001e88:	00048513          	mv	a0,s1
    80001e8c:	00000097          	auipc	ra,0x0
    80001e90:	f3c080e7          	jalr	-196(ra) # 80001dc8 <freewalk>
}
    80001e94:	01813083          	ld	ra,24(sp)
    80001e98:	01013403          	ld	s0,16(sp)
    80001e9c:	00813483          	ld	s1,8(sp)
    80001ea0:	02010113          	addi	sp,sp,32
    80001ea4:	00008067          	ret
    uvmunmap(pagetable, 0, PGROUNDUP(sz)/PGSIZE, 1);
    80001ea8:	000017b7          	lui	a5,0x1
    80001eac:	fff78793          	addi	a5,a5,-1 # fff <_entry-0x7ffff001>
    80001eb0:	00f585b3          	add	a1,a1,a5
    80001eb4:	00100693          	li	a3,1
    80001eb8:	00c5d613          	srli	a2,a1,0xc
    80001ebc:	00000593          	li	a1,0
    80001ec0:	00000097          	auipc	ra,0x0
    80001ec4:	ca0080e7          	jalr	-864(ra) # 80001b60 <uvmunmap>
    80001ec8:	fc1ff06f          	j	80001e88 <uvmfree+0x1c>

0000000080001ecc <uvmcopy>:
  pte_t *pte;
  uint64 pa, i;
  uint flags;
  char *mem;

  for(i = 0; i < sz; i += PGSIZE){
    80001ecc:	10060e63          	beqz	a2,80001fe8 <uvmcopy+0x11c>
{
    80001ed0:	fb010113          	addi	sp,sp,-80
    80001ed4:	04113423          	sd	ra,72(sp)
    80001ed8:	04813023          	sd	s0,64(sp)
    80001edc:	02913c23          	sd	s1,56(sp)
    80001ee0:	03213823          	sd	s2,48(sp)
    80001ee4:	03313423          	sd	s3,40(sp)
    80001ee8:	03413023          	sd	s4,32(sp)
    80001eec:	01513c23          	sd	s5,24(sp)
    80001ef0:	01613823          	sd	s6,16(sp)
    80001ef4:	01713423          	sd	s7,8(sp)
    80001ef8:	05010413          	addi	s0,sp,80
    80001efc:	00050a93          	mv	s5,a0
    80001f00:	00058b13          	mv	s6,a1
    80001f04:	00060a13          	mv	s4,a2
  for(i = 0; i < sz; i += PGSIZE){
    80001f08:	00000493          	li	s1,0
    80001f0c:	0100006f          	j	80001f1c <uvmcopy+0x50>
    80001f10:	000017b7          	lui	a5,0x1
    80001f14:	00f484b3          	add	s1,s1,a5
    80001f18:	0b44f063          	bgeu	s1,s4,80001fb8 <uvmcopy+0xec>
    if((pte = walk(old, i, 0)) == 0)
    80001f1c:	00000613          	li	a2,0
    80001f20:	00048593          	mv	a1,s1
    80001f24:	000a8513          	mv	a0,s5
    80001f28:	fffff097          	auipc	ra,0xfffff
    80001f2c:	7c4080e7          	jalr	1988(ra) # 800016ec <walk>
    80001f30:	fe0500e3          	beqz	a0,80001f10 <uvmcopy+0x44>
      continue;   // page table entry hasn't been allocated
    if((*pte & PTE_V) == 0)
    80001f34:	00053703          	ld	a4,0(a0)
    80001f38:	00177793          	andi	a5,a4,1
    80001f3c:	fc078ae3          	beqz	a5,80001f10 <uvmcopy+0x44>
      continue;   // physical page hasn't been allocated
    pa = PTE2PA(*pte);
    80001f40:	00a75593          	srli	a1,a4,0xa
    80001f44:	00c59b93          	slli	s7,a1,0xc
    flags = PTE_FLAGS(*pte);
    80001f48:	3ff77913          	andi	s2,a4,1023
    if((mem = kalloc()) == 0)
    80001f4c:	fffff097          	auipc	ra,0xfffff
    80001f50:	000080e7          	jalr	ra # 80000f4c <kalloc>
    80001f54:	00050993          	mv	s3,a0
    80001f58:	04050063          	beqz	a0,80001f98 <uvmcopy+0xcc>
      goto err;
    memmove(mem, (char*)pa, PGSIZE);
    80001f5c:	00001637          	lui	a2,0x1
    80001f60:	000b8593          	mv	a1,s7
    80001f64:	fffff097          	auipc	ra,0xfffff
    80001f68:	340080e7          	jalr	832(ra) # 800012a4 <memmove>
    if(mappages(new, i, PGSIZE, (uint64)mem, flags) != 0){
    80001f6c:	00090713          	mv	a4,s2
    80001f70:	00098693          	mv	a3,s3
    80001f74:	00001637          	lui	a2,0x1
    80001f78:	00048593          	mv	a1,s1
    80001f7c:	000b0513          	mv	a0,s6
    80001f80:	00000097          	auipc	ra,0x0
    80001f84:	8d4080e7          	jalr	-1836(ra) # 80001854 <mappages>
    80001f88:	f80504e3          	beqz	a0,80001f10 <uvmcopy+0x44>
      kfree(mem);
    80001f8c:	00098513          	mv	a0,s3
    80001f90:	fffff097          	auipc	ra,0xfffff
    80001f94:	e30080e7          	jalr	-464(ra) # 80000dc0 <kfree>
    }
  }
  return 0;

 err:
  uvmunmap(new, 0, i / PGSIZE, 1);
    80001f98:	00100693          	li	a3,1
    80001f9c:	00c4d613          	srli	a2,s1,0xc
    80001fa0:	00000593          	li	a1,0
    80001fa4:	000b0513          	mv	a0,s6
    80001fa8:	00000097          	auipc	ra,0x0
    80001fac:	bb8080e7          	jalr	-1096(ra) # 80001b60 <uvmunmap>
  return -1;
    80001fb0:	fff00513          	li	a0,-1
    80001fb4:	0080006f          	j	80001fbc <uvmcopy+0xf0>
  return 0;
    80001fb8:	00000513          	li	a0,0
}
    80001fbc:	04813083          	ld	ra,72(sp)
    80001fc0:	04013403          	ld	s0,64(sp)
    80001fc4:	03813483          	ld	s1,56(sp)
    80001fc8:	03013903          	ld	s2,48(sp)
    80001fcc:	02813983          	ld	s3,40(sp)
    80001fd0:	02013a03          	ld	s4,32(sp)
    80001fd4:	01813a83          	ld	s5,24(sp)
    80001fd8:	01013b03          	ld	s6,16(sp)
    80001fdc:	00813b83          	ld	s7,8(sp)
    80001fe0:	05010113          	addi	sp,sp,80
    80001fe4:	00008067          	ret
  return 0;
    80001fe8:	00000513          	li	a0,0
}
    80001fec:	00008067          	ret

0000000080001ff0 <uvmclear>:

// mark a PTE invalid for user access.
// used by exec for the user stack guard page.
void
uvmclear(pagetable_t pagetable, uint64 va)
{
    80001ff0:	ff010113          	addi	sp,sp,-16
    80001ff4:	00113423          	sd	ra,8(sp)
    80001ff8:	00813023          	sd	s0,0(sp)
    80001ffc:	01010413          	addi	s0,sp,16
  pte_t *pte;
  
  pte = walk(pagetable, va, 0);
    80002000:	00000613          	li	a2,0
    80002004:	fffff097          	auipc	ra,0xfffff
    80002008:	6e8080e7          	jalr	1768(ra) # 800016ec <walk>
  if(pte == 0)
    8000200c:	02050063          	beqz	a0,8000202c <uvmclear+0x3c>
    panic("uvmclear");
  *pte &= ~PTE_U;
    80002010:	00053783          	ld	a5,0(a0)
    80002014:	fef7f793          	andi	a5,a5,-17
    80002018:	00f53023          	sd	a5,0(a0)
}
    8000201c:	00813083          	ld	ra,8(sp)
    80002020:	00013403          	ld	s0,0(sp)
    80002024:	01010113          	addi	sp,sp,16
    80002028:	00008067          	ret
    panic("uvmclear");
    8000202c:	00008517          	auipc	a0,0x8
    80002030:	2a450513          	addi	a0,a0,676 # 8000a2d0 <digits+0x298>
    80002034:	fffff097          	auipc	ra,0xfffff
    80002038:	a4c080e7          	jalr	-1460(ra) # 80000a80 <panic>

000000008000203c <copyinstr>:
copyinstr(pagetable_t pagetable, char *dst, uint64 srcva, uint64 max)
{
  uint64 n, va0, pa0;
  int got_null = 0;

  while(got_null == 0 && max > 0){
    8000203c:	10068663          	beqz	a3,80002148 <copyinstr+0x10c>
{
    80002040:	fb010113          	addi	sp,sp,-80
    80002044:	04113423          	sd	ra,72(sp)
    80002048:	04813023          	sd	s0,64(sp)
    8000204c:	02913c23          	sd	s1,56(sp)
    80002050:	03213823          	sd	s2,48(sp)
    80002054:	03313423          	sd	s3,40(sp)
    80002058:	03413023          	sd	s4,32(sp)
    8000205c:	01513c23          	sd	s5,24(sp)
    80002060:	01613823          	sd	s6,16(sp)
    80002064:	01713423          	sd	s7,8(sp)
    80002068:	05010413          	addi	s0,sp,80
    8000206c:	00050a13          	mv	s4,a0
    80002070:	00058b13          	mv	s6,a1
    80002074:	00060b93          	mv	s7,a2
    80002078:	00068493          	mv	s1,a3
    va0 = PGROUNDDOWN(srcva);
    8000207c:	fffffab7          	lui	s5,0xfffff
    pa0 = walkaddr(pagetable, va0);
    if(pa0 == 0)
      return -1;
    n = PGSIZE - (srcva - va0);
    80002080:	000019b7          	lui	s3,0x1
    80002084:	0480006f          	j	800020cc <copyinstr+0x90>
      n = max;

    char *p = (char *) (pa0 + (srcva - va0));
    while(n > 0){
      if(*p == '\0'){
        *dst = '\0';
    80002088:	00078023          	sb	zero,0(a5) # 1000 <_entry-0x7ffff000>
    8000208c:	00100793          	li	a5,1
      dst++;
    }

    srcva = va0 + PGSIZE;
  }
  if(got_null){
    80002090:	fff7879b          	addiw	a5,a5,-1
    80002094:	0007851b          	sext.w	a0,a5
    return 0;
  } else {
    return -1;
  }
}
    80002098:	04813083          	ld	ra,72(sp)
    8000209c:	04013403          	ld	s0,64(sp)
    800020a0:	03813483          	ld	s1,56(sp)
    800020a4:	03013903          	ld	s2,48(sp)
    800020a8:	02813983          	ld	s3,40(sp)
    800020ac:	02013a03          	ld	s4,32(sp)
    800020b0:	01813a83          	ld	s5,24(sp)
    800020b4:	01013b03          	ld	s6,16(sp)
    800020b8:	00813b83          	ld	s7,8(sp)
    800020bc:	05010113          	addi	sp,sp,80
    800020c0:	00008067          	ret
    srcva = va0 + PGSIZE;
    800020c4:	01390bb3          	add	s7,s2,s3
  while(got_null == 0 && max > 0){
    800020c8:	06048863          	beqz	s1,80002138 <copyinstr+0xfc>
    va0 = PGROUNDDOWN(srcva);
    800020cc:	015bf933          	and	s2,s7,s5
    pa0 = walkaddr(pagetable, va0);
    800020d0:	00090593          	mv	a1,s2
    800020d4:	000a0513          	mv	a0,s4
    800020d8:	fffff097          	auipc	ra,0xfffff
    800020dc:	710080e7          	jalr	1808(ra) # 800017e8 <walkaddr>
    if(pa0 == 0)
    800020e0:	06050063          	beqz	a0,80002140 <copyinstr+0x104>
    n = PGSIZE - (srcva - va0);
    800020e4:	417906b3          	sub	a3,s2,s7
    800020e8:	013686b3          	add	a3,a3,s3
    800020ec:	00d4f463          	bgeu	s1,a3,800020f4 <copyinstr+0xb8>
    800020f0:	00048693          	mv	a3,s1
    char *p = (char *) (pa0 + (srcva - va0));
    800020f4:	01750533          	add	a0,a0,s7
    800020f8:	41250533          	sub	a0,a0,s2
    while(n > 0){
    800020fc:	fc0684e3          	beqz	a3,800020c4 <copyinstr+0x88>
    80002100:	000b0793          	mv	a5,s6
      if(*p == '\0'){
    80002104:	41650633          	sub	a2,a0,s6
    80002108:	fff48593          	addi	a1,s1,-1
    8000210c:	00bb05b3          	add	a1,s6,a1
    while(n > 0){
    80002110:	00db06b3          	add	a3,s6,a3
      if(*p == '\0'){
    80002114:	00f60733          	add	a4,a2,a5
    80002118:	00074703          	lbu	a4,0(a4)
    8000211c:	f60706e3          	beqz	a4,80002088 <copyinstr+0x4c>
        *dst = *p;
    80002120:	00e78023          	sb	a4,0(a5)
      --max;
    80002124:	40f584b3          	sub	s1,a1,a5
      dst++;
    80002128:	00178793          	addi	a5,a5,1
    while(n > 0){
    8000212c:	fed794e3          	bne	a5,a3,80002114 <copyinstr+0xd8>
      dst++;
    80002130:	00078b13          	mv	s6,a5
    80002134:	f91ff06f          	j	800020c4 <copyinstr+0x88>
    80002138:	00000793          	li	a5,0
    8000213c:	f55ff06f          	j	80002090 <copyinstr+0x54>
      return -1;
    80002140:	fff00513          	li	a0,-1
    80002144:	f55ff06f          	j	80002098 <copyinstr+0x5c>
  int got_null = 0;
    80002148:	00000793          	li	a5,0
  if(got_null){
    8000214c:	fff7879b          	addiw	a5,a5,-1
    80002150:	0007851b          	sext.w	a0,a5
}
    80002154:	00008067          	ret

0000000080002158 <ismapped>:
  return mem;
}

int
ismapped(pagetable_t pagetable, uint64 va)
{
    80002158:	ff010113          	addi	sp,sp,-16
    8000215c:	00113423          	sd	ra,8(sp)
    80002160:	00813023          	sd	s0,0(sp)
    80002164:	01010413          	addi	s0,sp,16
  pte_t *pte = walk(pagetable, va, 0);
    80002168:	00000613          	li	a2,0
    8000216c:	fffff097          	auipc	ra,0xfffff
    80002170:	580080e7          	jalr	1408(ra) # 800016ec <walk>
  if (pte == 0) {
    80002174:	00050e63          	beqz	a0,80002190 <ismapped+0x38>
    return 0;
  }
  if (*pte & PTE_V){
    80002178:	00053503          	ld	a0,0(a0)
    return 0;
    8000217c:	00157513          	andi	a0,a0,1
    return 1;
  }
  return 0;
}
    80002180:	00813083          	ld	ra,8(sp)
    80002184:	00013403          	ld	s0,0(sp)
    80002188:	01010113          	addi	sp,sp,16
    8000218c:	00008067          	ret
    return 0;
    80002190:	00000513          	li	a0,0
    80002194:	fedff06f          	j	80002180 <ismapped+0x28>

0000000080002198 <vmfault>:
{
    80002198:	fd010113          	addi	sp,sp,-48
    8000219c:	02113423          	sd	ra,40(sp)
    800021a0:	02813023          	sd	s0,32(sp)
    800021a4:	00913c23          	sd	s1,24(sp)
    800021a8:	01213823          	sd	s2,16(sp)
    800021ac:	01313423          	sd	s3,8(sp)
    800021b0:	01413023          	sd	s4,0(sp)
    800021b4:	03010413          	addi	s0,sp,48
    800021b8:	00050993          	mv	s3,a0
    800021bc:	00058493          	mv	s1,a1
  struct proc *p = myproc();
    800021c0:	00000097          	auipc	ra,0x0
    800021c4:	528080e7          	jalr	1320(ra) # 800026e8 <myproc>
  if (va >= p->sz)
    800021c8:	04853783          	ld	a5,72(a0)
    800021cc:	02f4e663          	bltu	s1,a5,800021f8 <vmfault+0x60>
    return 0;
    800021d0:	00000993          	li	s3,0
}
    800021d4:	00098513          	mv	a0,s3
    800021d8:	02813083          	ld	ra,40(sp)
    800021dc:	02013403          	ld	s0,32(sp)
    800021e0:	01813483          	ld	s1,24(sp)
    800021e4:	01013903          	ld	s2,16(sp)
    800021e8:	00813983          	ld	s3,8(sp)
    800021ec:	00013a03          	ld	s4,0(sp)
    800021f0:	03010113          	addi	sp,sp,48
    800021f4:	00008067          	ret
    800021f8:	00050913          	mv	s2,a0
  va = PGROUNDDOWN(va);
    800021fc:	fffff7b7          	lui	a5,0xfffff
    80002200:	00f4f4b3          	and	s1,s1,a5
  if(ismapped(pagetable, va)) {
    80002204:	00048593          	mv	a1,s1
    80002208:	00098513          	mv	a0,s3
    8000220c:	00000097          	auipc	ra,0x0
    80002210:	f4c080e7          	jalr	-180(ra) # 80002158 <ismapped>
    return 0;
    80002214:	00000993          	li	s3,0
  if(ismapped(pagetable, va)) {
    80002218:	fa051ee3          	bnez	a0,800021d4 <vmfault+0x3c>
  mem = (uint64) kalloc();
    8000221c:	fffff097          	auipc	ra,0xfffff
    80002220:	d30080e7          	jalr	-720(ra) # 80000f4c <kalloc>
    80002224:	00050a13          	mv	s4,a0
  if(mem == 0)
    80002228:	fa0506e3          	beqz	a0,800021d4 <vmfault+0x3c>
  mem = (uint64) kalloc();
    8000222c:	00050993          	mv	s3,a0
  memset((void *) mem, 0, PGSIZE);
    80002230:	00001637          	lui	a2,0x1
    80002234:	00000593          	li	a1,0
    80002238:	fffff097          	auipc	ra,0xfffff
    8000223c:	fd8080e7          	jalr	-40(ra) # 80001210 <memset>
  if (mappages(p->pagetable, va, PGSIZE, mem, PTE_W|PTE_U|PTE_R) != 0) {
    80002240:	01600713          	li	a4,22
    80002244:	000a0693          	mv	a3,s4
    80002248:	00001637          	lui	a2,0x1
    8000224c:	00048593          	mv	a1,s1
    80002250:	05093503          	ld	a0,80(s2) # 1050 <_entry-0x7fffefb0>
    80002254:	fffff097          	auipc	ra,0xfffff
    80002258:	600080e7          	jalr	1536(ra) # 80001854 <mappages>
    8000225c:	f6050ce3          	beqz	a0,800021d4 <vmfault+0x3c>
    kfree((void *)mem);
    80002260:	000a0513          	mv	a0,s4
    80002264:	fffff097          	auipc	ra,0xfffff
    80002268:	b5c080e7          	jalr	-1188(ra) # 80000dc0 <kfree>
    return 0;
    8000226c:	00000993          	li	s3,0
    80002270:	f65ff06f          	j	800021d4 <vmfault+0x3c>

0000000080002274 <copyout>:
  while(len > 0){
    80002274:	10068663          	beqz	a3,80002380 <copyout+0x10c>
{
    80002278:	fa010113          	addi	sp,sp,-96
    8000227c:	04113c23          	sd	ra,88(sp)
    80002280:	04813823          	sd	s0,80(sp)
    80002284:	04913423          	sd	s1,72(sp)
    80002288:	05213023          	sd	s2,64(sp)
    8000228c:	03313c23          	sd	s3,56(sp)
    80002290:	03413823          	sd	s4,48(sp)
    80002294:	03513423          	sd	s5,40(sp)
    80002298:	03613023          	sd	s6,32(sp)
    8000229c:	01713c23          	sd	s7,24(sp)
    800022a0:	01813823          	sd	s8,16(sp)
    800022a4:	01913423          	sd	s9,8(sp)
    800022a8:	01a13023          	sd	s10,0(sp)
    800022ac:	06010413          	addi	s0,sp,96
    800022b0:	00050c13          	mv	s8,a0
    800022b4:	00058b13          	mv	s6,a1
    800022b8:	00060b93          	mv	s7,a2
    800022bc:	00068a13          	mv	s4,a3
    va0 = PGROUNDDOWN(dstva);
    800022c0:	fffff4b7          	lui	s1,0xfffff
    800022c4:	0095f4b3          	and	s1,a1,s1
    if(va0 >= MAXVA)
    800022c8:	fff00793          	li	a5,-1
    800022cc:	01a7d793          	srli	a5,a5,0x1a
    800022d0:	0a97ec63          	bltu	a5,s1,80002388 <copyout+0x114>
    800022d4:	00001d37          	lui	s10,0x1
    800022d8:	00078c93          	mv	s9,a5
    800022dc:	0340006f          	j	80002310 <copyout+0x9c>
    memmove((void *)(pa0 + (dstva - va0)), src, n);
    800022e0:	409b0533          	sub	a0,s6,s1
    800022e4:	0009861b          	sext.w	a2,s3
    800022e8:	000b8593          	mv	a1,s7
    800022ec:	01250533          	add	a0,a0,s2
    800022f0:	fffff097          	auipc	ra,0xfffff
    800022f4:	fb4080e7          	jalr	-76(ra) # 800012a4 <memmove>
    len -= n;
    800022f8:	413a0a33          	sub	s4,s4,s3
    src += n;
    800022fc:	013b8bb3          	add	s7,s7,s3
  while(len > 0){
    80002300:	060a0c63          	beqz	s4,80002378 <copyout+0x104>
    if(va0 >= MAXVA)
    80002304:	095ce663          	bltu	s9,s5,80002390 <copyout+0x11c>
    va0 = PGROUNDDOWN(dstva);
    80002308:	000a8493          	mv	s1,s5
    dstva = va0 + PGSIZE;
    8000230c:	000a8b13          	mv	s6,s5
    pa0 = walkaddr(pagetable, va0);
    80002310:	00048593          	mv	a1,s1
    80002314:	000c0513          	mv	a0,s8
    80002318:	fffff097          	auipc	ra,0xfffff
    8000231c:	4d0080e7          	jalr	1232(ra) # 800017e8 <walkaddr>
    80002320:	00050913          	mv	s2,a0
    if(pa0 == 0) {
    80002324:	02051063          	bnez	a0,80002344 <copyout+0xd0>
      if((pa0 = vmfault(pagetable, va0, 0)) == 0) {
    80002328:	00000613          	li	a2,0
    8000232c:	00048593          	mv	a1,s1
    80002330:	000c0513          	mv	a0,s8
    80002334:	00000097          	auipc	ra,0x0
    80002338:	e64080e7          	jalr	-412(ra) # 80002198 <vmfault>
    8000233c:	00050913          	mv	s2,a0
    80002340:	04050c63          	beqz	a0,80002398 <copyout+0x124>
    pte = walk(pagetable, va0, 0);
    80002344:	00000613          	li	a2,0
    80002348:	00048593          	mv	a1,s1
    8000234c:	000c0513          	mv	a0,s8
    80002350:	fffff097          	auipc	ra,0xfffff
    80002354:	39c080e7          	jalr	924(ra) # 800016ec <walk>
    if((*pte & PTE_W) == 0)
    80002358:	00053783          	ld	a5,0(a0)
    8000235c:	0047f793          	andi	a5,a5,4
    80002360:	04078063          	beqz	a5,800023a0 <copyout+0x12c>
    n = PGSIZE - (dstva - va0);
    80002364:	01a48ab3          	add	s5,s1,s10
    80002368:	416a89b3          	sub	s3,s5,s6
    8000236c:	f73a7ae3          	bgeu	s4,s3,800022e0 <copyout+0x6c>
    80002370:	000a0993          	mv	s3,s4
    80002374:	f6dff06f          	j	800022e0 <copyout+0x6c>
  return 0;
    80002378:	00000513          	li	a0,0
    8000237c:	0280006f          	j	800023a4 <copyout+0x130>
    80002380:	00000513          	li	a0,0
}
    80002384:	00008067          	ret
      return -1;
    80002388:	fff00513          	li	a0,-1
    8000238c:	0180006f          	j	800023a4 <copyout+0x130>
    80002390:	fff00513          	li	a0,-1
    80002394:	0100006f          	j	800023a4 <copyout+0x130>
        return -1;
    80002398:	fff00513          	li	a0,-1
    8000239c:	0080006f          	j	800023a4 <copyout+0x130>
      return -1;
    800023a0:	fff00513          	li	a0,-1
}
    800023a4:	05813083          	ld	ra,88(sp)
    800023a8:	05013403          	ld	s0,80(sp)
    800023ac:	04813483          	ld	s1,72(sp)
    800023b0:	04013903          	ld	s2,64(sp)
    800023b4:	03813983          	ld	s3,56(sp)
    800023b8:	03013a03          	ld	s4,48(sp)
    800023bc:	02813a83          	ld	s5,40(sp)
    800023c0:	02013b03          	ld	s6,32(sp)
    800023c4:	01813b83          	ld	s7,24(sp)
    800023c8:	01013c03          	ld	s8,16(sp)
    800023cc:	00813c83          	ld	s9,8(sp)
    800023d0:	00013d03          	ld	s10,0(sp)
    800023d4:	06010113          	addi	sp,sp,96
    800023d8:	00008067          	ret

00000000800023dc <copyin>:
  while(len > 0){
    800023dc:	0e068a63          	beqz	a3,800024d0 <copyin+0xf4>
{
    800023e0:	fb010113          	addi	sp,sp,-80
    800023e4:	04113423          	sd	ra,72(sp)
    800023e8:	04813023          	sd	s0,64(sp)
    800023ec:	02913c23          	sd	s1,56(sp)
    800023f0:	03213823          	sd	s2,48(sp)
    800023f4:	03313423          	sd	s3,40(sp)
    800023f8:	03413023          	sd	s4,32(sp)
    800023fc:	01513c23          	sd	s5,24(sp)
    80002400:	01613823          	sd	s6,16(sp)
    80002404:	01713423          	sd	s7,8(sp)
    80002408:	01813023          	sd	s8,0(sp)
    8000240c:	05010413          	addi	s0,sp,80
    80002410:	00050b93          	mv	s7,a0
    80002414:	00058a93          	mv	s5,a1
    80002418:	00060913          	mv	s2,a2
    8000241c:	00068a13          	mv	s4,a3
    va0 = PGROUNDDOWN(srcva);
    80002420:	fffffc37          	lui	s8,0xfffff
    n = PGSIZE - (srcva - va0);
    80002424:	00001b37          	lui	s6,0x1
    80002428:	03c0006f          	j	80002464 <copyin+0x88>
    8000242c:	412984b3          	sub	s1,s3,s2
    80002430:	016484b3          	add	s1,s1,s6
    80002434:	009a7463          	bgeu	s4,s1,8000243c <copyin+0x60>
    80002438:	000a0493          	mv	s1,s4
    memmove(dst, (void *)(pa0 + (srcva - va0)), n);
    8000243c:	413905b3          	sub	a1,s2,s3
    80002440:	0004861b          	sext.w	a2,s1
    80002444:	00a585b3          	add	a1,a1,a0
    80002448:	000a8513          	mv	a0,s5
    8000244c:	fffff097          	auipc	ra,0xfffff
    80002450:	e58080e7          	jalr	-424(ra) # 800012a4 <memmove>
    len -= n;
    80002454:	409a0a33          	sub	s4,s4,s1
    dst += n;
    80002458:	009a8ab3          	add	s5,s5,s1
    srcva = va0 + PGSIZE;
    8000245c:	01698933          	add	s2,s3,s6
  while(len > 0){
    80002460:	020a0e63          	beqz	s4,8000249c <copyin+0xc0>
    va0 = PGROUNDDOWN(srcva);
    80002464:	018979b3          	and	s3,s2,s8
    pa0 = walkaddr(pagetable, va0);
    80002468:	00098593          	mv	a1,s3
    8000246c:	000b8513          	mv	a0,s7
    80002470:	fffff097          	auipc	ra,0xfffff
    80002474:	378080e7          	jalr	888(ra) # 800017e8 <walkaddr>
    if(pa0 == 0) {
    80002478:	fa051ae3          	bnez	a0,8000242c <copyin+0x50>
      if((pa0 = vmfault(pagetable, va0, 0)) == 0) {
    8000247c:	00000613          	li	a2,0
    80002480:	00098593          	mv	a1,s3
    80002484:	000b8513          	mv	a0,s7
    80002488:	00000097          	auipc	ra,0x0
    8000248c:	d10080e7          	jalr	-752(ra) # 80002198 <vmfault>
    80002490:	f8051ee3          	bnez	a0,8000242c <copyin+0x50>
        return -1;
    80002494:	fff00513          	li	a0,-1
    80002498:	0080006f          	j	800024a0 <copyin+0xc4>
  return 0;
    8000249c:	00000513          	li	a0,0
}
    800024a0:	04813083          	ld	ra,72(sp)
    800024a4:	04013403          	ld	s0,64(sp)
    800024a8:	03813483          	ld	s1,56(sp)
    800024ac:	03013903          	ld	s2,48(sp)
    800024b0:	02813983          	ld	s3,40(sp)
    800024b4:	02013a03          	ld	s4,32(sp)
    800024b8:	01813a83          	ld	s5,24(sp)
    800024bc:	01013b03          	ld	s6,16(sp)
    800024c0:	00813b83          	ld	s7,8(sp)
    800024c4:	00013c03          	ld	s8,0(sp)
    800024c8:	05010113          	addi	sp,sp,80
    800024cc:	00008067          	ret
  return 0;
    800024d0:	00000513          	li	a0,0
}
    800024d4:	00008067          	ret

00000000800024d8 <proc_mapstacks>:
// Allocate a page for each process's kernel stack.
// Map it high in memory, followed by an invalid
// guard page.
void
proc_mapstacks(pagetable_t kpgtbl)
{
    800024d8:	fc010113          	addi	sp,sp,-64
    800024dc:	02113c23          	sd	ra,56(sp)
    800024e0:	02813823          	sd	s0,48(sp)
    800024e4:	02913423          	sd	s1,40(sp)
    800024e8:	03213023          	sd	s2,32(sp)
    800024ec:	01313c23          	sd	s3,24(sp)
    800024f0:	01413823          	sd	s4,16(sp)
    800024f4:	01513423          	sd	s5,8(sp)
    800024f8:	01613023          	sd	s6,0(sp)
    800024fc:	04010413          	addi	s0,sp,64
    80002500:	00050993          	mv	s3,a0
  struct proc *p;
  
  for(p = proc; p < &proc[NPROC]; p++) {
    80002504:	00011497          	auipc	s1,0x11
    80002508:	9f448493          	addi	s1,s1,-1548 # 80012ef8 <proc>
    char *pa = kalloc();
    if(pa == 0)
      panic("kalloc");
    uint64 va = KSTACK((int) (p - proc));
    8000250c:	00048b13          	mv	s6,s1
    80002510:	00008a97          	auipc	s5,0x8
    80002514:	af0a8a93          	addi	s5,s5,-1296 # 8000a000 <etext>
    80002518:	04000937          	lui	s2,0x4000
    8000251c:	fff90913          	addi	s2,s2,-1 # 3ffffff <_entry-0x7c000001>
    80002520:	00c91913          	slli	s2,s2,0xc
  for(p = proc; p < &proc[NPROC]; p++) {
    80002524:	00016a17          	auipc	s4,0x16
    80002528:	3d4a0a13          	addi	s4,s4,980 # 800188f8 <tickslock>
    char *pa = kalloc();
    8000252c:	fffff097          	auipc	ra,0xfffff
    80002530:	a20080e7          	jalr	-1504(ra) # 80000f4c <kalloc>
    80002534:	00050613          	mv	a2,a0
    if(pa == 0)
    80002538:	06050263          	beqz	a0,8000259c <proc_mapstacks+0xc4>
    uint64 va = KSTACK((int) (p - proc));
    8000253c:	416485b3          	sub	a1,s1,s6
    80002540:	4035d593          	srai	a1,a1,0x3
    80002544:	000ab783          	ld	a5,0(s5)
    80002548:	02f585b3          	mul	a1,a1,a5
    8000254c:	0015859b          	addiw	a1,a1,1
    80002550:	00d5959b          	slliw	a1,a1,0xd
    kvmmap(kpgtbl, va, (uint64)pa, PGSIZE, PTE_R | PTE_W);
    80002554:	00600713          	li	a4,6
    80002558:	000016b7          	lui	a3,0x1
    8000255c:	40b905b3          	sub	a1,s2,a1
    80002560:	00098513          	mv	a0,s3
    80002564:	fffff097          	auipc	ra,0xfffff
    80002568:	410080e7          	jalr	1040(ra) # 80001974 <kvmmap>
  for(p = proc; p < &proc[NPROC]; p++) {
    8000256c:	16848493          	addi	s1,s1,360
    80002570:	fb449ee3          	bne	s1,s4,8000252c <proc_mapstacks+0x54>
  }
}
    80002574:	03813083          	ld	ra,56(sp)
    80002578:	03013403          	ld	s0,48(sp)
    8000257c:	02813483          	ld	s1,40(sp)
    80002580:	02013903          	ld	s2,32(sp)
    80002584:	01813983          	ld	s3,24(sp)
    80002588:	01013a03          	ld	s4,16(sp)
    8000258c:	00813a83          	ld	s5,8(sp)
    80002590:	00013b03          	ld	s6,0(sp)
    80002594:	04010113          	addi	sp,sp,64
    80002598:	00008067          	ret
      panic("kalloc");
    8000259c:	00008517          	auipc	a0,0x8
    800025a0:	d4450513          	addi	a0,a0,-700 # 8000a2e0 <digits+0x2a8>
    800025a4:	ffffe097          	auipc	ra,0xffffe
    800025a8:	4dc080e7          	jalr	1244(ra) # 80000a80 <panic>

00000000800025ac <procinit>:

// initialize the proc table.
void
procinit(void)
{
    800025ac:	fc010113          	addi	sp,sp,-64
    800025b0:	02113c23          	sd	ra,56(sp)
    800025b4:	02813823          	sd	s0,48(sp)
    800025b8:	02913423          	sd	s1,40(sp)
    800025bc:	03213023          	sd	s2,32(sp)
    800025c0:	01313c23          	sd	s3,24(sp)
    800025c4:	01413823          	sd	s4,16(sp)
    800025c8:	01513423          	sd	s5,8(sp)
    800025cc:	01613023          	sd	s6,0(sp)
    800025d0:	04010413          	addi	s0,sp,64
  struct proc *p;
  
  initlock(&pid_lock, "nextpid");
    800025d4:	00008597          	auipc	a1,0x8
    800025d8:	d1458593          	addi	a1,a1,-748 # 8000a2e8 <digits+0x2b0>
    800025dc:	00010517          	auipc	a0,0x10
    800025e0:	4ec50513          	addi	a0,a0,1260 # 80012ac8 <pid_lock>
    800025e4:	fffff097          	auipc	ra,0xfffff
    800025e8:	9f0080e7          	jalr	-1552(ra) # 80000fd4 <initlock>
  initlock(&wait_lock, "wait_lock");
    800025ec:	00008597          	auipc	a1,0x8
    800025f0:	d0458593          	addi	a1,a1,-764 # 8000a2f0 <digits+0x2b8>
    800025f4:	00010517          	auipc	a0,0x10
    800025f8:	4ec50513          	addi	a0,a0,1260 # 80012ae0 <wait_lock>
    800025fc:	fffff097          	auipc	ra,0xfffff
    80002600:	9d8080e7          	jalr	-1576(ra) # 80000fd4 <initlock>
  for(p = proc; p < &proc[NPROC]; p++) {
    80002604:	00011497          	auipc	s1,0x11
    80002608:	8f448493          	addi	s1,s1,-1804 # 80012ef8 <proc>
      initlock(&p->lock, "proc");
    8000260c:	00008b17          	auipc	s6,0x8
    80002610:	cf4b0b13          	addi	s6,s6,-780 # 8000a300 <digits+0x2c8>
      p->state = UNUSED;
      p->kstack = KSTACK((int) (p - proc));
    80002614:	00048a93          	mv	s5,s1
    80002618:	00008a17          	auipc	s4,0x8
    8000261c:	9e8a0a13          	addi	s4,s4,-1560 # 8000a000 <etext>
    80002620:	04000937          	lui	s2,0x4000
    80002624:	fff90913          	addi	s2,s2,-1 # 3ffffff <_entry-0x7c000001>
    80002628:	00c91913          	slli	s2,s2,0xc
  for(p = proc; p < &proc[NPROC]; p++) {
    8000262c:	00016997          	auipc	s3,0x16
    80002630:	2cc98993          	addi	s3,s3,716 # 800188f8 <tickslock>
      initlock(&p->lock, "proc");
    80002634:	000b0593          	mv	a1,s6
    80002638:	00048513          	mv	a0,s1
    8000263c:	fffff097          	auipc	ra,0xfffff
    80002640:	998080e7          	jalr	-1640(ra) # 80000fd4 <initlock>
      p->state = UNUSED;
    80002644:	0004ac23          	sw	zero,24(s1)
      p->kstack = KSTACK((int) (p - proc));
    80002648:	415487b3          	sub	a5,s1,s5
    8000264c:	4037d793          	srai	a5,a5,0x3
    80002650:	000a3703          	ld	a4,0(s4)
    80002654:	02e787b3          	mul	a5,a5,a4
    80002658:	0017879b          	addiw	a5,a5,1 # fffffffffffff001 <end+0xffffffff7ffdb329>
    8000265c:	00d7979b          	slliw	a5,a5,0xd
    80002660:	40f907b3          	sub	a5,s2,a5
    80002664:	04f4b023          	sd	a5,64(s1)
  for(p = proc; p < &proc[NPROC]; p++) {
    80002668:	16848493          	addi	s1,s1,360
    8000266c:	fd3494e3          	bne	s1,s3,80002634 <procinit+0x88>
  }
}
    80002670:	03813083          	ld	ra,56(sp)
    80002674:	03013403          	ld	s0,48(sp)
    80002678:	02813483          	ld	s1,40(sp)
    8000267c:	02013903          	ld	s2,32(sp)
    80002680:	01813983          	ld	s3,24(sp)
    80002684:	01013a03          	ld	s4,16(sp)
    80002688:	00813a83          	ld	s5,8(sp)
    8000268c:	00013b03          	ld	s6,0(sp)
    80002690:	04010113          	addi	sp,sp,64
    80002694:	00008067          	ret

0000000080002698 <cpuid>:
// Must be called with interrupts disabled,
// to prevent race with process being moved
// to a different CPU.
int
cpuid()
{
    80002698:	ff010113          	addi	sp,sp,-16
    8000269c:	00813423          	sd	s0,8(sp)
    800026a0:	01010413          	addi	s0,sp,16
  asm volatile("mv %0, tp" : "=r" (x) );
    800026a4:	00020513          	mv	a0,tp
  int id = r_tp();
  return id;
}
    800026a8:	0005051b          	sext.w	a0,a0
    800026ac:	00813403          	ld	s0,8(sp)
    800026b0:	01010113          	addi	sp,sp,16
    800026b4:	00008067          	ret

00000000800026b8 <mycpu>:

// Return this CPU's cpu struct.
// Interrupts must be disabled.
struct cpu*
mycpu(void)
{
    800026b8:	ff010113          	addi	sp,sp,-16
    800026bc:	00813423          	sd	s0,8(sp)
    800026c0:	01010413          	addi	s0,sp,16
    800026c4:	00020793          	mv	a5,tp
  int id = cpuid();
  struct cpu *c = &cpus[id];
    800026c8:	0007879b          	sext.w	a5,a5
    800026cc:	00779793          	slli	a5,a5,0x7
  return c;
}
    800026d0:	00010517          	auipc	a0,0x10
    800026d4:	42850513          	addi	a0,a0,1064 # 80012af8 <cpus>
    800026d8:	00f50533          	add	a0,a0,a5
    800026dc:	00813403          	ld	s0,8(sp)
    800026e0:	01010113          	addi	sp,sp,16
    800026e4:	00008067          	ret

00000000800026e8 <myproc>:

// Return the current struct proc *, or zero if none.
struct proc*
myproc(void)
{
    800026e8:	fe010113          	addi	sp,sp,-32
    800026ec:	00113c23          	sd	ra,24(sp)
    800026f0:	00813823          	sd	s0,16(sp)
    800026f4:	00913423          	sd	s1,8(sp)
    800026f8:	02010413          	addi	s0,sp,32
  push_off();
    800026fc:	fffff097          	auipc	ra,0xfffff
    80002700:	948080e7          	jalr	-1720(ra) # 80001044 <push_off>
    80002704:	00020793          	mv	a5,tp
  struct cpu *c = mycpu();
  struct proc *p = c->proc;
    80002708:	0007879b          	sext.w	a5,a5
    8000270c:	00779793          	slli	a5,a5,0x7
    80002710:	00010717          	auipc	a4,0x10
    80002714:	3b870713          	addi	a4,a4,952 # 80012ac8 <pid_lock>
    80002718:	00f707b3          	add	a5,a4,a5
    8000271c:	0307b483          	ld	s1,48(a5)
  pop_off();
    80002720:	fffff097          	auipc	ra,0xfffff
    80002724:	a10080e7          	jalr	-1520(ra) # 80001130 <pop_off>
  return p;
}
    80002728:	00048513          	mv	a0,s1
    8000272c:	01813083          	ld	ra,24(sp)
    80002730:	01013403          	ld	s0,16(sp)
    80002734:	00813483          	ld	s1,8(sp)
    80002738:	02010113          	addi	sp,sp,32
    8000273c:	00008067          	ret

0000000080002740 <forkret>:

// A fork child's very first scheduling by scheduler()
// will swtch to forkret.
void
forkret(void)
{
    80002740:	fd010113          	addi	sp,sp,-48
    80002744:	02113423          	sd	ra,40(sp)
    80002748:	02813023          	sd	s0,32(sp)
    8000274c:	00913c23          	sd	s1,24(sp)
    80002750:	03010413          	addi	s0,sp,48
  extern char userret[];
  static int first = 1;
  struct proc *p = myproc();
    80002754:	00000097          	auipc	ra,0x0
    80002758:	f94080e7          	jalr	-108(ra) # 800026e8 <myproc>
    8000275c:	00050493          	mv	s1,a0

  // Still holding p->lock from scheduler.
  release(&p->lock);
    80002760:	fffff097          	auipc	ra,0xfffff
    80002764:	a50080e7          	jalr	-1456(ra) # 800011b0 <release>

  if (first) {
    80002768:	00008797          	auipc	a5,0x8
    8000276c:	2287a783          	lw	a5,552(a5) # 8000a990 <first.1>
    80002770:	04078863          	beqz	a5,800027c0 <forkret+0x80>
    // File system initialization must be run in the context of a
    // regular process (e.g., because it calls sleep), and thus cannot
    // be run from main().
    fsinit(ROOTDEV);
    80002774:	00100513          	li	a0,1
    80002778:	00003097          	auipc	ra,0x3
    8000277c:	be4080e7          	jalr	-1052(ra) # 8000535c <fsinit>

    first = 0;
    80002780:	00008797          	auipc	a5,0x8
    80002784:	2007a823          	sw	zero,528(a5) # 8000a990 <first.1>
    // ensure other cores see first=0.
    __sync_synchronize();
    80002788:	0ff0000f          	fence

    // We can invoke kexec() now that file system is initialized.
    // Put the return value (argc) of kexec into a0.
    p->trapframe->a0 = kexec("/init", (char *[]){ "/init", 0 });
    8000278c:	00008517          	auipc	a0,0x8
    80002790:	b7c50513          	addi	a0,a0,-1156 # 8000a308 <digits+0x2d0>
    80002794:	fca43823          	sd	a0,-48(s0)
    80002798:	fc043c23          	sd	zero,-40(s0)
    8000279c:	fd040593          	addi	a1,s0,-48
    800027a0:	00004097          	auipc	ra,0x4
    800027a4:	690080e7          	jalr	1680(ra) # 80006e30 <kexec>
    800027a8:	0584b783          	ld	a5,88(s1)
    800027ac:	06a7b823          	sd	a0,112(a5)
    if (p->trapframe->a0 == -1) {
    800027b0:	0584b783          	ld	a5,88(s1)
    800027b4:	0707b703          	ld	a4,112(a5)
    800027b8:	fff00793          	li	a5,-1
    800027bc:	04f70e63          	beq	a4,a5,80002818 <forkret+0xd8>
      panic("exec");
    }
  }

  // return to user space, mimicing usertrap()'s return.
  prepare_return();
    800027c0:	00001097          	auipc	ra,0x1
    800027c4:	15c080e7          	jalr	348(ra) # 8000391c <prepare_return>
  uint64 satp = MAKE_SATP(p->pagetable);
    800027c8:	0504b503          	ld	a0,80(s1)
    800027cc:	00c55513          	srli	a0,a0,0xc
  uint64 trampoline_userret = TRAMPOLINE + (userret - trampoline);
    800027d0:	04000737          	lui	a4,0x4000
    800027d4:	00007797          	auipc	a5,0x7
    800027d8:	8dc78793          	addi	a5,a5,-1828 # 800090b0 <userret>
    800027dc:	00007697          	auipc	a3,0x7
    800027e0:	82468693          	addi	a3,a3,-2012 # 80009000 <_trampoline>
    800027e4:	40d787b3          	sub	a5,a5,a3
    800027e8:	fff70713          	addi	a4,a4,-1 # 3ffffff <_entry-0x7c000001>
    800027ec:	00c71713          	slli	a4,a4,0xc
    800027f0:	00e787b3          	add	a5,a5,a4
  ((void (*)(uint64))trampoline_userret)(satp);
    800027f4:	fff00713          	li	a4,-1
    800027f8:	03f71713          	slli	a4,a4,0x3f
    800027fc:	00e56533          	or	a0,a0,a4
    80002800:	000780e7          	jalr	a5
}
    80002804:	02813083          	ld	ra,40(sp)
    80002808:	02013403          	ld	s0,32(sp)
    8000280c:	01813483          	ld	s1,24(sp)
    80002810:	03010113          	addi	sp,sp,48
    80002814:	00008067          	ret
      panic("exec");
    80002818:	00008517          	auipc	a0,0x8
    8000281c:	af850513          	addi	a0,a0,-1288 # 8000a310 <digits+0x2d8>
    80002820:	ffffe097          	auipc	ra,0xffffe
    80002824:	260080e7          	jalr	608(ra) # 80000a80 <panic>

0000000080002828 <allocpid>:
{
    80002828:	fe010113          	addi	sp,sp,-32
    8000282c:	00113c23          	sd	ra,24(sp)
    80002830:	00813823          	sd	s0,16(sp)
    80002834:	00913423          	sd	s1,8(sp)
    80002838:	01213023          	sd	s2,0(sp)
    8000283c:	02010413          	addi	s0,sp,32
  acquire(&pid_lock);
    80002840:	00010917          	auipc	s2,0x10
    80002844:	28890913          	addi	s2,s2,648 # 80012ac8 <pid_lock>
    80002848:	00090513          	mv	a0,s2
    8000284c:	fffff097          	auipc	ra,0xfffff
    80002850:	86c080e7          	jalr	-1940(ra) # 800010b8 <acquire>
  pid = nextpid;
    80002854:	00008797          	auipc	a5,0x8
    80002858:	14078793          	addi	a5,a5,320 # 8000a994 <nextpid>
    8000285c:	0007a483          	lw	s1,0(a5)
  nextpid = nextpid + 1;
    80002860:	0014871b          	addiw	a4,s1,1
    80002864:	00e7a023          	sw	a4,0(a5)
  release(&pid_lock);
    80002868:	00090513          	mv	a0,s2
    8000286c:	fffff097          	auipc	ra,0xfffff
    80002870:	944080e7          	jalr	-1724(ra) # 800011b0 <release>
}
    80002874:	00048513          	mv	a0,s1
    80002878:	01813083          	ld	ra,24(sp)
    8000287c:	01013403          	ld	s0,16(sp)
    80002880:	00813483          	ld	s1,8(sp)
    80002884:	00013903          	ld	s2,0(sp)
    80002888:	02010113          	addi	sp,sp,32
    8000288c:	00008067          	ret

0000000080002890 <proc_pagetable>:
{
    80002890:	fe010113          	addi	sp,sp,-32
    80002894:	00113c23          	sd	ra,24(sp)
    80002898:	00813823          	sd	s0,16(sp)
    8000289c:	00913423          	sd	s1,8(sp)
    800028a0:	01213023          	sd	s2,0(sp)
    800028a4:	02010413          	addi	s0,sp,32
    800028a8:	00050913          	mv	s2,a0
  pagetable = uvmcreate();
    800028ac:	fffff097          	auipc	ra,0xfffff
    800028b0:	268080e7          	jalr	616(ra) # 80001b14 <uvmcreate>
    800028b4:	00050493          	mv	s1,a0
  if(pagetable == 0)
    800028b8:	04050a63          	beqz	a0,8000290c <proc_pagetable+0x7c>
  if(mappages(pagetable, TRAMPOLINE, PGSIZE,
    800028bc:	00a00713          	li	a4,10
    800028c0:	00006697          	auipc	a3,0x6
    800028c4:	74068693          	addi	a3,a3,1856 # 80009000 <_trampoline>
    800028c8:	00001637          	lui	a2,0x1
    800028cc:	040005b7          	lui	a1,0x4000
    800028d0:	fff58593          	addi	a1,a1,-1 # 3ffffff <_entry-0x7c000001>
    800028d4:	00c59593          	slli	a1,a1,0xc
    800028d8:	fffff097          	auipc	ra,0xfffff
    800028dc:	f7c080e7          	jalr	-132(ra) # 80001854 <mappages>
    800028e0:	04054463          	bltz	a0,80002928 <proc_pagetable+0x98>
  if(mappages(pagetable, TRAPFRAME, PGSIZE,
    800028e4:	00600713          	li	a4,6
    800028e8:	05893683          	ld	a3,88(s2)
    800028ec:	00001637          	lui	a2,0x1
    800028f0:	020005b7          	lui	a1,0x2000
    800028f4:	fff58593          	addi	a1,a1,-1 # 1ffffff <_entry-0x7e000001>
    800028f8:	00d59593          	slli	a1,a1,0xd
    800028fc:	00048513          	mv	a0,s1
    80002900:	fffff097          	auipc	ra,0xfffff
    80002904:	f54080e7          	jalr	-172(ra) # 80001854 <mappages>
    80002908:	02054c63          	bltz	a0,80002940 <proc_pagetable+0xb0>
}
    8000290c:	00048513          	mv	a0,s1
    80002910:	01813083          	ld	ra,24(sp)
    80002914:	01013403          	ld	s0,16(sp)
    80002918:	00813483          	ld	s1,8(sp)
    8000291c:	00013903          	ld	s2,0(sp)
    80002920:	02010113          	addi	sp,sp,32
    80002924:	00008067          	ret
    uvmfree(pagetable, 0);
    80002928:	00000593          	li	a1,0
    8000292c:	00048513          	mv	a0,s1
    80002930:	fffff097          	auipc	ra,0xfffff
    80002934:	53c080e7          	jalr	1340(ra) # 80001e6c <uvmfree>
    return 0;
    80002938:	00000493          	li	s1,0
    8000293c:	fd1ff06f          	j	8000290c <proc_pagetable+0x7c>
    uvmunmap(pagetable, TRAMPOLINE, 1, 0);
    80002940:	00000693          	li	a3,0
    80002944:	00100613          	li	a2,1
    80002948:	040005b7          	lui	a1,0x4000
    8000294c:	fff58593          	addi	a1,a1,-1 # 3ffffff <_entry-0x7c000001>
    80002950:	00c59593          	slli	a1,a1,0xc
    80002954:	00048513          	mv	a0,s1
    80002958:	fffff097          	auipc	ra,0xfffff
    8000295c:	208080e7          	jalr	520(ra) # 80001b60 <uvmunmap>
    uvmfree(pagetable, 0);
    80002960:	00000593          	li	a1,0
    80002964:	00048513          	mv	a0,s1
    80002968:	fffff097          	auipc	ra,0xfffff
    8000296c:	504080e7          	jalr	1284(ra) # 80001e6c <uvmfree>
    return 0;
    80002970:	00000493          	li	s1,0
    80002974:	f99ff06f          	j	8000290c <proc_pagetable+0x7c>

0000000080002978 <proc_freepagetable>:
{
    80002978:	fe010113          	addi	sp,sp,-32
    8000297c:	00113c23          	sd	ra,24(sp)
    80002980:	00813823          	sd	s0,16(sp)
    80002984:	00913423          	sd	s1,8(sp)
    80002988:	01213023          	sd	s2,0(sp)
    8000298c:	02010413          	addi	s0,sp,32
    80002990:	00050493          	mv	s1,a0
    80002994:	00058913          	mv	s2,a1
  uvmunmap(pagetable, TRAMPOLINE, 1, 0);
    80002998:	00000693          	li	a3,0
    8000299c:	00100613          	li	a2,1
    800029a0:	040005b7          	lui	a1,0x4000
    800029a4:	fff58593          	addi	a1,a1,-1 # 3ffffff <_entry-0x7c000001>
    800029a8:	00c59593          	slli	a1,a1,0xc
    800029ac:	fffff097          	auipc	ra,0xfffff
    800029b0:	1b4080e7          	jalr	436(ra) # 80001b60 <uvmunmap>
  uvmunmap(pagetable, TRAPFRAME, 1, 0);
    800029b4:	00000693          	li	a3,0
    800029b8:	00100613          	li	a2,1
    800029bc:	020005b7          	lui	a1,0x2000
    800029c0:	fff58593          	addi	a1,a1,-1 # 1ffffff <_entry-0x7e000001>
    800029c4:	00d59593          	slli	a1,a1,0xd
    800029c8:	00048513          	mv	a0,s1
    800029cc:	fffff097          	auipc	ra,0xfffff
    800029d0:	194080e7          	jalr	404(ra) # 80001b60 <uvmunmap>
  uvmfree(pagetable, sz);
    800029d4:	00090593          	mv	a1,s2
    800029d8:	00048513          	mv	a0,s1
    800029dc:	fffff097          	auipc	ra,0xfffff
    800029e0:	490080e7          	jalr	1168(ra) # 80001e6c <uvmfree>
}
    800029e4:	01813083          	ld	ra,24(sp)
    800029e8:	01013403          	ld	s0,16(sp)
    800029ec:	00813483          	ld	s1,8(sp)
    800029f0:	00013903          	ld	s2,0(sp)
    800029f4:	02010113          	addi	sp,sp,32
    800029f8:	00008067          	ret

00000000800029fc <freeproc>:
{
    800029fc:	fe010113          	addi	sp,sp,-32
    80002a00:	00113c23          	sd	ra,24(sp)
    80002a04:	00813823          	sd	s0,16(sp)
    80002a08:	00913423          	sd	s1,8(sp)
    80002a0c:	02010413          	addi	s0,sp,32
    80002a10:	00050493          	mv	s1,a0
  if(p->trapframe)
    80002a14:	05853503          	ld	a0,88(a0)
    80002a18:	00050663          	beqz	a0,80002a24 <freeproc+0x28>
    kfree((void*)p->trapframe);
    80002a1c:	ffffe097          	auipc	ra,0xffffe
    80002a20:	3a4080e7          	jalr	932(ra) # 80000dc0 <kfree>
  p->trapframe = 0;
    80002a24:	0404bc23          	sd	zero,88(s1)
  if(p->pagetable)
    80002a28:	0504b503          	ld	a0,80(s1)
    80002a2c:	00050863          	beqz	a0,80002a3c <freeproc+0x40>
    proc_freepagetable(p->pagetable, p->sz);
    80002a30:	0484b583          	ld	a1,72(s1)
    80002a34:	00000097          	auipc	ra,0x0
    80002a38:	f44080e7          	jalr	-188(ra) # 80002978 <proc_freepagetable>
  p->pagetable = 0;
    80002a3c:	0404b823          	sd	zero,80(s1)
  p->sz = 0;
    80002a40:	0404b423          	sd	zero,72(s1)
  p->pid = 0;
    80002a44:	0204a823          	sw	zero,48(s1)
  p->parent = 0;
    80002a48:	0204bc23          	sd	zero,56(s1)
  p->name[0] = 0;
    80002a4c:	14048c23          	sb	zero,344(s1)
  p->chan = 0;
    80002a50:	0204b023          	sd	zero,32(s1)
  p->killed = 0;
    80002a54:	0204a423          	sw	zero,40(s1)
  p->xstate = 0;
    80002a58:	0204a623          	sw	zero,44(s1)
  p->state = UNUSED;
    80002a5c:	0004ac23          	sw	zero,24(s1)
}
    80002a60:	01813083          	ld	ra,24(sp)
    80002a64:	01013403          	ld	s0,16(sp)
    80002a68:	00813483          	ld	s1,8(sp)
    80002a6c:	02010113          	addi	sp,sp,32
    80002a70:	00008067          	ret

0000000080002a74 <allocproc>:
{
    80002a74:	fe010113          	addi	sp,sp,-32
    80002a78:	00113c23          	sd	ra,24(sp)
    80002a7c:	00813823          	sd	s0,16(sp)
    80002a80:	00913423          	sd	s1,8(sp)
    80002a84:	01213023          	sd	s2,0(sp)
    80002a88:	02010413          	addi	s0,sp,32
  for(p = proc; p < &proc[NPROC]; p++) {
    80002a8c:	00010497          	auipc	s1,0x10
    80002a90:	46c48493          	addi	s1,s1,1132 # 80012ef8 <proc>
    80002a94:	00016917          	auipc	s2,0x16
    80002a98:	e6490913          	addi	s2,s2,-412 # 800188f8 <tickslock>
    acquire(&p->lock);
    80002a9c:	00048513          	mv	a0,s1
    80002aa0:	ffffe097          	auipc	ra,0xffffe
    80002aa4:	618080e7          	jalr	1560(ra) # 800010b8 <acquire>
    if(p->state == UNUSED) {
    80002aa8:	0184a783          	lw	a5,24(s1)
    80002aac:	02078063          	beqz	a5,80002acc <allocproc+0x58>
      release(&p->lock);
    80002ab0:	00048513          	mv	a0,s1
    80002ab4:	ffffe097          	auipc	ra,0xffffe
    80002ab8:	6fc080e7          	jalr	1788(ra) # 800011b0 <release>
  for(p = proc; p < &proc[NPROC]; p++) {
    80002abc:	16848493          	addi	s1,s1,360
    80002ac0:	fd249ee3          	bne	s1,s2,80002a9c <allocproc+0x28>
  return 0;
    80002ac4:	00000493          	li	s1,0
    80002ac8:	0740006f          	j	80002b3c <allocproc+0xc8>
  p->pid = allocpid();
    80002acc:	00000097          	auipc	ra,0x0
    80002ad0:	d5c080e7          	jalr	-676(ra) # 80002828 <allocpid>
    80002ad4:	02a4a823          	sw	a0,48(s1)
  p->state = USED;
    80002ad8:	00100793          	li	a5,1
    80002adc:	00f4ac23          	sw	a5,24(s1)
  if((p->trapframe = (struct trapframe *)kalloc()) == 0){
    80002ae0:	ffffe097          	auipc	ra,0xffffe
    80002ae4:	46c080e7          	jalr	1132(ra) # 80000f4c <kalloc>
    80002ae8:	00050913          	mv	s2,a0
    80002aec:	04a4bc23          	sd	a0,88(s1)
    80002af0:	06050463          	beqz	a0,80002b58 <allocproc+0xe4>
  p->pagetable = proc_pagetable(p);
    80002af4:	00048513          	mv	a0,s1
    80002af8:	00000097          	auipc	ra,0x0
    80002afc:	d98080e7          	jalr	-616(ra) # 80002890 <proc_pagetable>
    80002b00:	00050913          	mv	s2,a0
    80002b04:	04a4b823          	sd	a0,80(s1)
  if(p->pagetable == 0){
    80002b08:	06050863          	beqz	a0,80002b78 <allocproc+0x104>
  memset(&p->context, 0, sizeof(p->context));
    80002b0c:	07000613          	li	a2,112
    80002b10:	00000593          	li	a1,0
    80002b14:	06048513          	addi	a0,s1,96
    80002b18:	ffffe097          	auipc	ra,0xffffe
    80002b1c:	6f8080e7          	jalr	1784(ra) # 80001210 <memset>
  p->context.ra = (uint64)forkret;
    80002b20:	00000797          	auipc	a5,0x0
    80002b24:	c2078793          	addi	a5,a5,-992 # 80002740 <forkret>
    80002b28:	06f4b023          	sd	a5,96(s1)
  p->context.sp = p->kstack + PGSIZE;
    80002b2c:	0404b783          	ld	a5,64(s1)
    80002b30:	00001737          	lui	a4,0x1
    80002b34:	00e787b3          	add	a5,a5,a4
    80002b38:	06f4b423          	sd	a5,104(s1)
}
    80002b3c:	00048513          	mv	a0,s1
    80002b40:	01813083          	ld	ra,24(sp)
    80002b44:	01013403          	ld	s0,16(sp)
    80002b48:	00813483          	ld	s1,8(sp)
    80002b4c:	00013903          	ld	s2,0(sp)
    80002b50:	02010113          	addi	sp,sp,32
    80002b54:	00008067          	ret
    freeproc(p);
    80002b58:	00048513          	mv	a0,s1
    80002b5c:	00000097          	auipc	ra,0x0
    80002b60:	ea0080e7          	jalr	-352(ra) # 800029fc <freeproc>
    release(&p->lock);
    80002b64:	00048513          	mv	a0,s1
    80002b68:	ffffe097          	auipc	ra,0xffffe
    80002b6c:	648080e7          	jalr	1608(ra) # 800011b0 <release>
    return 0;
    80002b70:	00090493          	mv	s1,s2
    80002b74:	fc9ff06f          	j	80002b3c <allocproc+0xc8>
    freeproc(p);
    80002b78:	00048513          	mv	a0,s1
    80002b7c:	00000097          	auipc	ra,0x0
    80002b80:	e80080e7          	jalr	-384(ra) # 800029fc <freeproc>
    release(&p->lock);
    80002b84:	00048513          	mv	a0,s1
    80002b88:	ffffe097          	auipc	ra,0xffffe
    80002b8c:	628080e7          	jalr	1576(ra) # 800011b0 <release>
    return 0;
    80002b90:	00090493          	mv	s1,s2
    80002b94:	fa9ff06f          	j	80002b3c <allocproc+0xc8>

0000000080002b98 <userinit>:
{
    80002b98:	fe010113          	addi	sp,sp,-32
    80002b9c:	00113c23          	sd	ra,24(sp)
    80002ba0:	00813823          	sd	s0,16(sp)
    80002ba4:	00913423          	sd	s1,8(sp)
    80002ba8:	02010413          	addi	s0,sp,32
  p = allocproc();
    80002bac:	00000097          	auipc	ra,0x0
    80002bb0:	ec8080e7          	jalr	-312(ra) # 80002a74 <allocproc>
    80002bb4:	00050493          	mv	s1,a0
  initproc = p;
    80002bb8:	00008797          	auipc	a5,0x8
    80002bbc:	e0a7b423          	sd	a0,-504(a5) # 8000a9c0 <initproc>
  p->cwd = namei("/");
    80002bc0:	00007517          	auipc	a0,0x7
    80002bc4:	75850513          	addi	a0,a0,1880 # 8000a318 <digits+0x2e0>
    80002bc8:	00003097          	auipc	ra,0x3
    80002bcc:	fbc080e7          	jalr	-68(ra) # 80005b84 <namei>
    80002bd0:	14a4b823          	sd	a0,336(s1)
  p->state = RUNNABLE;
    80002bd4:	00300793          	li	a5,3
    80002bd8:	00f4ac23          	sw	a5,24(s1)
  release(&p->lock);
    80002bdc:	00048513          	mv	a0,s1
    80002be0:	ffffe097          	auipc	ra,0xffffe
    80002be4:	5d0080e7          	jalr	1488(ra) # 800011b0 <release>
}
    80002be8:	01813083          	ld	ra,24(sp)
    80002bec:	01013403          	ld	s0,16(sp)
    80002bf0:	00813483          	ld	s1,8(sp)
    80002bf4:	02010113          	addi	sp,sp,32
    80002bf8:	00008067          	ret

0000000080002bfc <growproc>:
{
    80002bfc:	fe010113          	addi	sp,sp,-32
    80002c00:	00113c23          	sd	ra,24(sp)
    80002c04:	00813823          	sd	s0,16(sp)
    80002c08:	00913423          	sd	s1,8(sp)
    80002c0c:	01213023          	sd	s2,0(sp)
    80002c10:	02010413          	addi	s0,sp,32
    80002c14:	00050913          	mv	s2,a0
  struct proc *p = myproc();
    80002c18:	00000097          	auipc	ra,0x0
    80002c1c:	ad0080e7          	jalr	-1328(ra) # 800026e8 <myproc>
    80002c20:	00050493          	mv	s1,a0
  sz = p->sz;
    80002c24:	04853583          	ld	a1,72(a0)
  if(n > 0){
    80002c28:	03204463          	bgtz	s2,80002c50 <growproc+0x54>
  } else if(n < 0){
    80002c2c:	04094463          	bltz	s2,80002c74 <growproc+0x78>
  p->sz = sz;
    80002c30:	04b4b423          	sd	a1,72(s1)
  return 0;
    80002c34:	00000513          	li	a0,0
}
    80002c38:	01813083          	ld	ra,24(sp)
    80002c3c:	01013403          	ld	s0,16(sp)
    80002c40:	00813483          	ld	s1,8(sp)
    80002c44:	00013903          	ld	s2,0(sp)
    80002c48:	02010113          	addi	sp,sp,32
    80002c4c:	00008067          	ret
    if((sz = uvmalloc(p->pagetable, sz, sz + n, PTE_W)) == 0) {
    80002c50:	00400693          	li	a3,4
    80002c54:	00b90633          	add	a2,s2,a1
    80002c58:	05053503          	ld	a0,80(a0)
    80002c5c:	fffff097          	auipc	ra,0xfffff
    80002c60:	04c080e7          	jalr	76(ra) # 80001ca8 <uvmalloc>
    80002c64:	00050593          	mv	a1,a0
    80002c68:	fc0514e3          	bnez	a0,80002c30 <growproc+0x34>
      return -1;
    80002c6c:	fff00513          	li	a0,-1
    80002c70:	fc9ff06f          	j	80002c38 <growproc+0x3c>
    sz = uvmdealloc(p->pagetable, sz, sz + n);
    80002c74:	00b90633          	add	a2,s2,a1
    80002c78:	05053503          	ld	a0,80(a0)
    80002c7c:	fffff097          	auipc	ra,0xfffff
    80002c80:	fb4080e7          	jalr	-76(ra) # 80001c30 <uvmdealloc>
    80002c84:	00050593          	mv	a1,a0
    80002c88:	fa9ff06f          	j	80002c30 <growproc+0x34>

0000000080002c8c <kfork>:
{
    80002c8c:	fc010113          	addi	sp,sp,-64
    80002c90:	02113c23          	sd	ra,56(sp)
    80002c94:	02813823          	sd	s0,48(sp)
    80002c98:	02913423          	sd	s1,40(sp)
    80002c9c:	03213023          	sd	s2,32(sp)
    80002ca0:	01313c23          	sd	s3,24(sp)
    80002ca4:	01413823          	sd	s4,16(sp)
    80002ca8:	01513423          	sd	s5,8(sp)
    80002cac:	04010413          	addi	s0,sp,64
  struct proc *p = myproc();
    80002cb0:	00000097          	auipc	ra,0x0
    80002cb4:	a38080e7          	jalr	-1480(ra) # 800026e8 <myproc>
    80002cb8:	00050a93          	mv	s5,a0
  if((np = allocproc()) == 0){
    80002cbc:	00000097          	auipc	ra,0x0
    80002cc0:	db8080e7          	jalr	-584(ra) # 80002a74 <allocproc>
    80002cc4:	16050063          	beqz	a0,80002e24 <kfork+0x198>
    80002cc8:	00050a13          	mv	s4,a0
  if(uvmcopy(p->pagetable, np->pagetable, p->sz) < 0){
    80002ccc:	048ab603          	ld	a2,72(s5)
    80002cd0:	05053583          	ld	a1,80(a0)
    80002cd4:	050ab503          	ld	a0,80(s5)
    80002cd8:	fffff097          	auipc	ra,0xfffff
    80002cdc:	1f4080e7          	jalr	500(ra) # 80001ecc <uvmcopy>
    80002ce0:	06054063          	bltz	a0,80002d40 <kfork+0xb4>
  np->sz = p->sz;
    80002ce4:	048ab783          	ld	a5,72(s5)
    80002ce8:	04fa3423          	sd	a5,72(s4)
  *(np->trapframe) = *(p->trapframe);
    80002cec:	058ab683          	ld	a3,88(s5)
    80002cf0:	00068793          	mv	a5,a3
    80002cf4:	058a3703          	ld	a4,88(s4)
    80002cf8:	12068693          	addi	a3,a3,288
    80002cfc:	0007b803          	ld	a6,0(a5)
    80002d00:	0087b503          	ld	a0,8(a5)
    80002d04:	0107b583          	ld	a1,16(a5)
    80002d08:	0187b603          	ld	a2,24(a5)
    80002d0c:	01073023          	sd	a6,0(a4) # 1000 <_entry-0x7ffff000>
    80002d10:	00a73423          	sd	a0,8(a4)
    80002d14:	00b73823          	sd	a1,16(a4)
    80002d18:	00c73c23          	sd	a2,24(a4)
    80002d1c:	02078793          	addi	a5,a5,32
    80002d20:	02070713          	addi	a4,a4,32
    80002d24:	fcd79ce3          	bne	a5,a3,80002cfc <kfork+0x70>
  np->trapframe->a0 = 0;
    80002d28:	058a3783          	ld	a5,88(s4)
    80002d2c:	0607b823          	sd	zero,112(a5)
  for(i = 0; i < NOFILE; i++)
    80002d30:	0d0a8493          	addi	s1,s5,208
    80002d34:	0d0a0913          	addi	s2,s4,208
    80002d38:	150a8993          	addi	s3,s5,336
    80002d3c:	0300006f          	j	80002d6c <kfork+0xe0>
    freeproc(np);
    80002d40:	000a0513          	mv	a0,s4
    80002d44:	00000097          	auipc	ra,0x0
    80002d48:	cb8080e7          	jalr	-840(ra) # 800029fc <freeproc>
    release(&np->lock);
    80002d4c:	000a0513          	mv	a0,s4
    80002d50:	ffffe097          	auipc	ra,0xffffe
    80002d54:	460080e7          	jalr	1120(ra) # 800011b0 <release>
    return -1;
    80002d58:	fff00913          	li	s2,-1
    80002d5c:	0a00006f          	j	80002dfc <kfork+0x170>
  for(i = 0; i < NOFILE; i++)
    80002d60:	00848493          	addi	s1,s1,8
    80002d64:	00890913          	addi	s2,s2,8
    80002d68:	01348e63          	beq	s1,s3,80002d84 <kfork+0xf8>
    if(p->ofile[i])
    80002d6c:	0004b503          	ld	a0,0(s1)
    80002d70:	fe0508e3          	beqz	a0,80002d60 <kfork+0xd4>
      np->ofile[i] = filedup(p->ofile[i]);
    80002d74:	00003097          	auipc	ra,0x3
    80002d78:	730080e7          	jalr	1840(ra) # 800064a4 <filedup>
    80002d7c:	00a93023          	sd	a0,0(s2)
    80002d80:	fe1ff06f          	j	80002d60 <kfork+0xd4>
  np->cwd = idup(p->cwd);
    80002d84:	150ab503          	ld	a0,336(s5)
    80002d88:	00002097          	auipc	ra,0x2
    80002d8c:	0b4080e7          	jalr	180(ra) # 80004e3c <idup>
    80002d90:	14aa3823          	sd	a0,336(s4)
  safestrcpy(np->name, p->name, sizeof(p->name));
    80002d94:	01000613          	li	a2,16
    80002d98:	158a8593          	addi	a1,s5,344
    80002d9c:	158a0513          	addi	a0,s4,344
    80002da0:	ffffe097          	auipc	ra,0xffffe
    80002da4:	670080e7          	jalr	1648(ra) # 80001410 <safestrcpy>
  pid = np->pid;
    80002da8:	030a2903          	lw	s2,48(s4)
  release(&np->lock);
    80002dac:	000a0513          	mv	a0,s4
    80002db0:	ffffe097          	auipc	ra,0xffffe
    80002db4:	400080e7          	jalr	1024(ra) # 800011b0 <release>
  acquire(&wait_lock);
    80002db8:	00010497          	auipc	s1,0x10
    80002dbc:	d2848493          	addi	s1,s1,-728 # 80012ae0 <wait_lock>
    80002dc0:	00048513          	mv	a0,s1
    80002dc4:	ffffe097          	auipc	ra,0xffffe
    80002dc8:	2f4080e7          	jalr	756(ra) # 800010b8 <acquire>
  np->parent = p;
    80002dcc:	035a3c23          	sd	s5,56(s4)
  release(&wait_lock);
    80002dd0:	00048513          	mv	a0,s1
    80002dd4:	ffffe097          	auipc	ra,0xffffe
    80002dd8:	3dc080e7          	jalr	988(ra) # 800011b0 <release>
  acquire(&np->lock);
    80002ddc:	000a0513          	mv	a0,s4
    80002de0:	ffffe097          	auipc	ra,0xffffe
    80002de4:	2d8080e7          	jalr	728(ra) # 800010b8 <acquire>
  np->state = RUNNABLE;
    80002de8:	00300793          	li	a5,3
    80002dec:	00fa2c23          	sw	a5,24(s4)
  release(&np->lock);
    80002df0:	000a0513          	mv	a0,s4
    80002df4:	ffffe097          	auipc	ra,0xffffe
    80002df8:	3bc080e7          	jalr	956(ra) # 800011b0 <release>
}
    80002dfc:	00090513          	mv	a0,s2
    80002e00:	03813083          	ld	ra,56(sp)
    80002e04:	03013403          	ld	s0,48(sp)
    80002e08:	02813483          	ld	s1,40(sp)
    80002e0c:	02013903          	ld	s2,32(sp)
    80002e10:	01813983          	ld	s3,24(sp)
    80002e14:	01013a03          	ld	s4,16(sp)
    80002e18:	00813a83          	ld	s5,8(sp)
    80002e1c:	04010113          	addi	sp,sp,64
    80002e20:	00008067          	ret
    return -1;
    80002e24:	fff00913          	li	s2,-1
    80002e28:	fd5ff06f          	j	80002dfc <kfork+0x170>

0000000080002e2c <scheduler>:
{
    80002e2c:	fb010113          	addi	sp,sp,-80
    80002e30:	04113423          	sd	ra,72(sp)
    80002e34:	04813023          	sd	s0,64(sp)
    80002e38:	02913c23          	sd	s1,56(sp)
    80002e3c:	03213823          	sd	s2,48(sp)
    80002e40:	03313423          	sd	s3,40(sp)
    80002e44:	03413023          	sd	s4,32(sp)
    80002e48:	01513c23          	sd	s5,24(sp)
    80002e4c:	01613823          	sd	s6,16(sp)
    80002e50:	01713423          	sd	s7,8(sp)
    80002e54:	01813023          	sd	s8,0(sp)
    80002e58:	05010413          	addi	s0,sp,80
    80002e5c:	00020793          	mv	a5,tp
  int id = r_tp();
    80002e60:	0007879b          	sext.w	a5,a5
  c->proc = 0;
    80002e64:	00779b13          	slli	s6,a5,0x7
    80002e68:	00010717          	auipc	a4,0x10
    80002e6c:	c6070713          	addi	a4,a4,-928 # 80012ac8 <pid_lock>
    80002e70:	01670733          	add	a4,a4,s6
    80002e74:	02073823          	sd	zero,48(a4)
        swtch(&c->context, &p->context);
    80002e78:	00010717          	auipc	a4,0x10
    80002e7c:	c8870713          	addi	a4,a4,-888 # 80012b00 <cpus+0x8>
    80002e80:	00eb0b33          	add	s6,s6,a4
        p->state = RUNNING;
    80002e84:	00400c13          	li	s8,4
        c->proc = p;
    80002e88:	00779793          	slli	a5,a5,0x7
    80002e8c:	00010a17          	auipc	s4,0x10
    80002e90:	c3ca0a13          	addi	s4,s4,-964 # 80012ac8 <pid_lock>
    80002e94:	00fa0a33          	add	s4,s4,a5
        found = 1;
    80002e98:	00100b93          	li	s7,1
    for(p = proc; p < &proc[NPROC]; p++) {
    80002e9c:	00016997          	auipc	s3,0x16
    80002ea0:	a5c98993          	addi	s3,s3,-1444 # 800188f8 <tickslock>
    80002ea4:	0580006f          	j	80002efc <scheduler+0xd0>
      release(&p->lock);
    80002ea8:	00048513          	mv	a0,s1
    80002eac:	ffffe097          	auipc	ra,0xffffe
    80002eb0:	304080e7          	jalr	772(ra) # 800011b0 <release>
    for(p = proc; p < &proc[NPROC]; p++) {
    80002eb4:	16848493          	addi	s1,s1,360
    80002eb8:	03348e63          	beq	s1,s3,80002ef4 <scheduler+0xc8>
      acquire(&p->lock);
    80002ebc:	00048513          	mv	a0,s1
    80002ec0:	ffffe097          	auipc	ra,0xffffe
    80002ec4:	1f8080e7          	jalr	504(ra) # 800010b8 <acquire>
      if(p->state == RUNNABLE) {
    80002ec8:	0184a783          	lw	a5,24(s1)
    80002ecc:	fd279ee3          	bne	a5,s2,80002ea8 <scheduler+0x7c>
        p->state = RUNNING;
    80002ed0:	0184ac23          	sw	s8,24(s1)
        c->proc = p;
    80002ed4:	029a3823          	sd	s1,48(s4)
        swtch(&c->context, &p->context);
    80002ed8:	06048593          	addi	a1,s1,96
    80002edc:	000b0513          	mv	a0,s6
    80002ee0:	00001097          	auipc	ra,0x1
    80002ee4:	96c080e7          	jalr	-1684(ra) # 8000384c <swtch>
        c->proc = 0;
    80002ee8:	020a3823          	sd	zero,48(s4)
        found = 1;
    80002eec:	000b8a93          	mv	s5,s7
    80002ef0:	fb9ff06f          	j	80002ea8 <scheduler+0x7c>
    if(found == 0) {
    80002ef4:	000a9463          	bnez	s5,80002efc <scheduler+0xd0>
      asm volatile("wfi");
    80002ef8:	10500073          	wfi
  asm volatile("csrr %0, sstatus" : "=r" (x) );
    80002efc:	100027f3          	csrr	a5,sstatus
  w_sstatus(r_sstatus() | SSTATUS_SIE);
    80002f00:	0027e793          	ori	a5,a5,2
  asm volatile("csrw sstatus, %0" : : "r" (x));
    80002f04:	10079073          	csrw	sstatus,a5
  asm volatile("csrr %0, sstatus" : "=r" (x) );
    80002f08:	100027f3          	csrr	a5,sstatus
  w_sstatus(r_sstatus() & ~SSTATUS_SIE);
    80002f0c:	ffd7f793          	andi	a5,a5,-3
  asm volatile("csrw sstatus, %0" : : "r" (x));
    80002f10:	10079073          	csrw	sstatus,a5
    int found = 0;
    80002f14:	00000a93          	li	s5,0
    for(p = proc; p < &proc[NPROC]; p++) {
    80002f18:	00010497          	auipc	s1,0x10
    80002f1c:	fe048493          	addi	s1,s1,-32 # 80012ef8 <proc>
      if(p->state == RUNNABLE) {
    80002f20:	00300913          	li	s2,3
    80002f24:	f99ff06f          	j	80002ebc <scheduler+0x90>

0000000080002f28 <sched>:
{
    80002f28:	fd010113          	addi	sp,sp,-48
    80002f2c:	02113423          	sd	ra,40(sp)
    80002f30:	02813023          	sd	s0,32(sp)
    80002f34:	00913c23          	sd	s1,24(sp)
    80002f38:	01213823          	sd	s2,16(sp)
    80002f3c:	01313423          	sd	s3,8(sp)
    80002f40:	03010413          	addi	s0,sp,48
  struct proc *p = myproc();
    80002f44:	fffff097          	auipc	ra,0xfffff
    80002f48:	7a4080e7          	jalr	1956(ra) # 800026e8 <myproc>
    80002f4c:	00050493          	mv	s1,a0
  if(!holding(&p->lock))
    80002f50:	ffffe097          	auipc	ra,0xffffe
    80002f54:	0a8080e7          	jalr	168(ra) # 80000ff8 <holding>
    80002f58:	0a050863          	beqz	a0,80003008 <sched+0xe0>
  asm volatile("mv %0, tp" : "=r" (x) );
    80002f5c:	00020793          	mv	a5,tp
  if(mycpu()->noff != 1)
    80002f60:	0007879b          	sext.w	a5,a5
    80002f64:	00779793          	slli	a5,a5,0x7
    80002f68:	00010717          	auipc	a4,0x10
    80002f6c:	b6070713          	addi	a4,a4,-1184 # 80012ac8 <pid_lock>
    80002f70:	00f707b3          	add	a5,a4,a5
    80002f74:	0a87a703          	lw	a4,168(a5)
    80002f78:	00100793          	li	a5,1
    80002f7c:	08f71e63          	bne	a4,a5,80003018 <sched+0xf0>
  if(p->state == RUNNING)
    80002f80:	0184a703          	lw	a4,24(s1)
    80002f84:	00400793          	li	a5,4
    80002f88:	0af70063          	beq	a4,a5,80003028 <sched+0x100>
  asm volatile("csrr %0, sstatus" : "=r" (x) );
    80002f8c:	100027f3          	csrr	a5,sstatus
  return (x & SSTATUS_SIE) != 0;
    80002f90:	0027f793          	andi	a5,a5,2
  if(intr_get())
    80002f94:	0a079263          	bnez	a5,80003038 <sched+0x110>
  asm volatile("mv %0, tp" : "=r" (x) );
    80002f98:	00020793          	mv	a5,tp
  intena = mycpu()->intena;
    80002f9c:	00010917          	auipc	s2,0x10
    80002fa0:	b2c90913          	addi	s2,s2,-1236 # 80012ac8 <pid_lock>
    80002fa4:	0007879b          	sext.w	a5,a5
    80002fa8:	00779793          	slli	a5,a5,0x7
    80002fac:	00f907b3          	add	a5,s2,a5
    80002fb0:	0ac7a983          	lw	s3,172(a5)
    80002fb4:	00020793          	mv	a5,tp
  swtch(&p->context, &mycpu()->context);
    80002fb8:	0007879b          	sext.w	a5,a5
    80002fbc:	00779793          	slli	a5,a5,0x7
    80002fc0:	00010597          	auipc	a1,0x10
    80002fc4:	b4058593          	addi	a1,a1,-1216 # 80012b00 <cpus+0x8>
    80002fc8:	00b785b3          	add	a1,a5,a1
    80002fcc:	06048513          	addi	a0,s1,96
    80002fd0:	00001097          	auipc	ra,0x1
    80002fd4:	87c080e7          	jalr	-1924(ra) # 8000384c <swtch>
    80002fd8:	00020793          	mv	a5,tp
  mycpu()->intena = intena;
    80002fdc:	0007879b          	sext.w	a5,a5
    80002fe0:	00779793          	slli	a5,a5,0x7
    80002fe4:	00f90933          	add	s2,s2,a5
    80002fe8:	0b392623          	sw	s3,172(s2)
}
    80002fec:	02813083          	ld	ra,40(sp)
    80002ff0:	02013403          	ld	s0,32(sp)
    80002ff4:	01813483          	ld	s1,24(sp)
    80002ff8:	01013903          	ld	s2,16(sp)
    80002ffc:	00813983          	ld	s3,8(sp)
    80003000:	03010113          	addi	sp,sp,48
    80003004:	00008067          	ret
    panic("sched p->lock");
    80003008:	00007517          	auipc	a0,0x7
    8000300c:	31850513          	addi	a0,a0,792 # 8000a320 <digits+0x2e8>
    80003010:	ffffe097          	auipc	ra,0xffffe
    80003014:	a70080e7          	jalr	-1424(ra) # 80000a80 <panic>
    panic("sched locks");
    80003018:	00007517          	auipc	a0,0x7
    8000301c:	31850513          	addi	a0,a0,792 # 8000a330 <digits+0x2f8>
    80003020:	ffffe097          	auipc	ra,0xffffe
    80003024:	a60080e7          	jalr	-1440(ra) # 80000a80 <panic>
    panic("sched RUNNING");
    80003028:	00007517          	auipc	a0,0x7
    8000302c:	31850513          	addi	a0,a0,792 # 8000a340 <digits+0x308>
    80003030:	ffffe097          	auipc	ra,0xffffe
    80003034:	a50080e7          	jalr	-1456(ra) # 80000a80 <panic>
    panic("sched interruptible");
    80003038:	00007517          	auipc	a0,0x7
    8000303c:	31850513          	addi	a0,a0,792 # 8000a350 <digits+0x318>
    80003040:	ffffe097          	auipc	ra,0xffffe
    80003044:	a40080e7          	jalr	-1472(ra) # 80000a80 <panic>

0000000080003048 <yield>:
{
    80003048:	fe010113          	addi	sp,sp,-32
    8000304c:	00113c23          	sd	ra,24(sp)
    80003050:	00813823          	sd	s0,16(sp)
    80003054:	00913423          	sd	s1,8(sp)
    80003058:	02010413          	addi	s0,sp,32
  struct proc *p = myproc();
    8000305c:	fffff097          	auipc	ra,0xfffff
    80003060:	68c080e7          	jalr	1676(ra) # 800026e8 <myproc>
    80003064:	00050493          	mv	s1,a0
  acquire(&p->lock);
    80003068:	ffffe097          	auipc	ra,0xffffe
    8000306c:	050080e7          	jalr	80(ra) # 800010b8 <acquire>
  p->state = RUNNABLE;
    80003070:	00300793          	li	a5,3
    80003074:	00f4ac23          	sw	a5,24(s1)
  sched();
    80003078:	00000097          	auipc	ra,0x0
    8000307c:	eb0080e7          	jalr	-336(ra) # 80002f28 <sched>
  release(&p->lock);
    80003080:	00048513          	mv	a0,s1
    80003084:	ffffe097          	auipc	ra,0xffffe
    80003088:	12c080e7          	jalr	300(ra) # 800011b0 <release>
}
    8000308c:	01813083          	ld	ra,24(sp)
    80003090:	01013403          	ld	s0,16(sp)
    80003094:	00813483          	ld	s1,8(sp)
    80003098:	02010113          	addi	sp,sp,32
    8000309c:	00008067          	ret

00000000800030a0 <sleep>:

// Sleep on channel chan, releasing condition lock lk.
// Re-acquires lk when awakened.
void
sleep(void *chan, struct spinlock *lk)
{
    800030a0:	fd010113          	addi	sp,sp,-48
    800030a4:	02113423          	sd	ra,40(sp)
    800030a8:	02813023          	sd	s0,32(sp)
    800030ac:	00913c23          	sd	s1,24(sp)
    800030b0:	01213823          	sd	s2,16(sp)
    800030b4:	01313423          	sd	s3,8(sp)
    800030b8:	03010413          	addi	s0,sp,48
    800030bc:	00050993          	mv	s3,a0
    800030c0:	00058913          	mv	s2,a1
  struct proc *p = myproc();
    800030c4:	fffff097          	auipc	ra,0xfffff
    800030c8:	624080e7          	jalr	1572(ra) # 800026e8 <myproc>
    800030cc:	00050493          	mv	s1,a0
  // Once we hold p->lock, we can be
  // guaranteed that we won't miss any wakeup
  // (wakeup locks p->lock),
  // so it's okay to release lk.

  acquire(&p->lock);  //DOC: sleeplock1
    800030d0:	ffffe097          	auipc	ra,0xffffe
    800030d4:	fe8080e7          	jalr	-24(ra) # 800010b8 <acquire>
  release(lk);
    800030d8:	00090513          	mv	a0,s2
    800030dc:	ffffe097          	auipc	ra,0xffffe
    800030e0:	0d4080e7          	jalr	212(ra) # 800011b0 <release>

  // Go to sleep.
  p->chan = chan;
    800030e4:	0334b023          	sd	s3,32(s1)
  p->state = SLEEPING;
    800030e8:	00200793          	li	a5,2
    800030ec:	00f4ac23          	sw	a5,24(s1)

  sched();
    800030f0:	00000097          	auipc	ra,0x0
    800030f4:	e38080e7          	jalr	-456(ra) # 80002f28 <sched>

  // Tidy up.
  p->chan = 0;
    800030f8:	0204b023          	sd	zero,32(s1)

  // Reacquire original lock.
  release(&p->lock);
    800030fc:	00048513          	mv	a0,s1
    80003100:	ffffe097          	auipc	ra,0xffffe
    80003104:	0b0080e7          	jalr	176(ra) # 800011b0 <release>
  acquire(lk);
    80003108:	00090513          	mv	a0,s2
    8000310c:	ffffe097          	auipc	ra,0xffffe
    80003110:	fac080e7          	jalr	-84(ra) # 800010b8 <acquire>
}
    80003114:	02813083          	ld	ra,40(sp)
    80003118:	02013403          	ld	s0,32(sp)
    8000311c:	01813483          	ld	s1,24(sp)
    80003120:	01013903          	ld	s2,16(sp)
    80003124:	00813983          	ld	s3,8(sp)
    80003128:	03010113          	addi	sp,sp,48
    8000312c:	00008067          	ret

0000000080003130 <wakeup>:

// Wake up all processes sleeping on channel chan.
// Caller should hold the condition lock.
void
wakeup(void *chan)
{
    80003130:	fc010113          	addi	sp,sp,-64
    80003134:	02113c23          	sd	ra,56(sp)
    80003138:	02813823          	sd	s0,48(sp)
    8000313c:	02913423          	sd	s1,40(sp)
    80003140:	03213023          	sd	s2,32(sp)
    80003144:	01313c23          	sd	s3,24(sp)
    80003148:	01413823          	sd	s4,16(sp)
    8000314c:	01513423          	sd	s5,8(sp)
    80003150:	04010413          	addi	s0,sp,64
    80003154:	00050a13          	mv	s4,a0
  struct proc *p;

  for(p = proc; p < &proc[NPROC]; p++) {
    80003158:	00010497          	auipc	s1,0x10
    8000315c:	da048493          	addi	s1,s1,-608 # 80012ef8 <proc>
    if(p != myproc()){
      acquire(&p->lock);
      if(p->state == SLEEPING && p->chan == chan) {
    80003160:	00200993          	li	s3,2
        p->state = RUNNABLE;
    80003164:	00300a93          	li	s5,3
  for(p = proc; p < &proc[NPROC]; p++) {
    80003168:	00015917          	auipc	s2,0x15
    8000316c:	79090913          	addi	s2,s2,1936 # 800188f8 <tickslock>
    80003170:	0180006f          	j	80003188 <wakeup+0x58>
      }
      release(&p->lock);
    80003174:	00048513          	mv	a0,s1
    80003178:	ffffe097          	auipc	ra,0xffffe
    8000317c:	038080e7          	jalr	56(ra) # 800011b0 <release>
  for(p = proc; p < &proc[NPROC]; p++) {
    80003180:	16848493          	addi	s1,s1,360
    80003184:	03248a63          	beq	s1,s2,800031b8 <wakeup+0x88>
    if(p != myproc()){
    80003188:	fffff097          	auipc	ra,0xfffff
    8000318c:	560080e7          	jalr	1376(ra) # 800026e8 <myproc>
    80003190:	fea488e3          	beq	s1,a0,80003180 <wakeup+0x50>
      acquire(&p->lock);
    80003194:	00048513          	mv	a0,s1
    80003198:	ffffe097          	auipc	ra,0xffffe
    8000319c:	f20080e7          	jalr	-224(ra) # 800010b8 <acquire>
      if(p->state == SLEEPING && p->chan == chan) {
    800031a0:	0184a783          	lw	a5,24(s1)
    800031a4:	fd3798e3          	bne	a5,s3,80003174 <wakeup+0x44>
    800031a8:	0204b783          	ld	a5,32(s1)
    800031ac:	fd4794e3          	bne	a5,s4,80003174 <wakeup+0x44>
        p->state = RUNNABLE;
    800031b0:	0154ac23          	sw	s5,24(s1)
    800031b4:	fc1ff06f          	j	80003174 <wakeup+0x44>
    }
  }
}
    800031b8:	03813083          	ld	ra,56(sp)
    800031bc:	03013403          	ld	s0,48(sp)
    800031c0:	02813483          	ld	s1,40(sp)
    800031c4:	02013903          	ld	s2,32(sp)
    800031c8:	01813983          	ld	s3,24(sp)
    800031cc:	01013a03          	ld	s4,16(sp)
    800031d0:	00813a83          	ld	s5,8(sp)
    800031d4:	04010113          	addi	sp,sp,64
    800031d8:	00008067          	ret

00000000800031dc <reparent>:
{
    800031dc:	fd010113          	addi	sp,sp,-48
    800031e0:	02113423          	sd	ra,40(sp)
    800031e4:	02813023          	sd	s0,32(sp)
    800031e8:	00913c23          	sd	s1,24(sp)
    800031ec:	01213823          	sd	s2,16(sp)
    800031f0:	01313423          	sd	s3,8(sp)
    800031f4:	01413023          	sd	s4,0(sp)
    800031f8:	03010413          	addi	s0,sp,48
    800031fc:	00050913          	mv	s2,a0
  for(pp = proc; pp < &proc[NPROC]; pp++){
    80003200:	00010497          	auipc	s1,0x10
    80003204:	cf848493          	addi	s1,s1,-776 # 80012ef8 <proc>
      pp->parent = initproc;
    80003208:	00007a17          	auipc	s4,0x7
    8000320c:	7b8a0a13          	addi	s4,s4,1976 # 8000a9c0 <initproc>
  for(pp = proc; pp < &proc[NPROC]; pp++){
    80003210:	00015997          	auipc	s3,0x15
    80003214:	6e898993          	addi	s3,s3,1768 # 800188f8 <tickslock>
    80003218:	00c0006f          	j	80003224 <reparent+0x48>
    8000321c:	16848493          	addi	s1,s1,360
    80003220:	03348063          	beq	s1,s3,80003240 <reparent+0x64>
    if(pp->parent == p){
    80003224:	0384b783          	ld	a5,56(s1)
    80003228:	ff279ae3          	bne	a5,s2,8000321c <reparent+0x40>
      pp->parent = initproc;
    8000322c:	000a3503          	ld	a0,0(s4)
    80003230:	02a4bc23          	sd	a0,56(s1)
      wakeup(initproc);
    80003234:	00000097          	auipc	ra,0x0
    80003238:	efc080e7          	jalr	-260(ra) # 80003130 <wakeup>
    8000323c:	fe1ff06f          	j	8000321c <reparent+0x40>
}
    80003240:	02813083          	ld	ra,40(sp)
    80003244:	02013403          	ld	s0,32(sp)
    80003248:	01813483          	ld	s1,24(sp)
    8000324c:	01013903          	ld	s2,16(sp)
    80003250:	00813983          	ld	s3,8(sp)
    80003254:	00013a03          	ld	s4,0(sp)
    80003258:	03010113          	addi	sp,sp,48
    8000325c:	00008067          	ret

0000000080003260 <kexit>:
{
    80003260:	fd010113          	addi	sp,sp,-48
    80003264:	02113423          	sd	ra,40(sp)
    80003268:	02813023          	sd	s0,32(sp)
    8000326c:	00913c23          	sd	s1,24(sp)
    80003270:	01213823          	sd	s2,16(sp)
    80003274:	01313423          	sd	s3,8(sp)
    80003278:	01413023          	sd	s4,0(sp)
    8000327c:	03010413          	addi	s0,sp,48
    80003280:	00050a13          	mv	s4,a0
  struct proc *p = myproc();
    80003284:	fffff097          	auipc	ra,0xfffff
    80003288:	464080e7          	jalr	1124(ra) # 800026e8 <myproc>
    8000328c:	00050993          	mv	s3,a0
  if(p == initproc)
    80003290:	00007797          	auipc	a5,0x7
    80003294:	7307b783          	ld	a5,1840(a5) # 8000a9c0 <initproc>
    80003298:	0d050493          	addi	s1,a0,208
    8000329c:	15050913          	addi	s2,a0,336
    800032a0:	02a79463          	bne	a5,a0,800032c8 <kexit+0x68>
    panic("init exiting");
    800032a4:	00007517          	auipc	a0,0x7
    800032a8:	0c450513          	addi	a0,a0,196 # 8000a368 <digits+0x330>
    800032ac:	ffffd097          	auipc	ra,0xffffd
    800032b0:	7d4080e7          	jalr	2004(ra) # 80000a80 <panic>
      fileclose(f);
    800032b4:	00003097          	auipc	ra,0x3
    800032b8:	260080e7          	jalr	608(ra) # 80006514 <fileclose>
      p->ofile[fd] = 0;
    800032bc:	0004b023          	sd	zero,0(s1)
  for(int fd = 0; fd < NOFILE; fd++){
    800032c0:	00848493          	addi	s1,s1,8
    800032c4:	01248863          	beq	s1,s2,800032d4 <kexit+0x74>
    if(p->ofile[fd]){
    800032c8:	0004b503          	ld	a0,0(s1)
    800032cc:	fe0514e3          	bnez	a0,800032b4 <kexit+0x54>
    800032d0:	ff1ff06f          	j	800032c0 <kexit+0x60>
  begin_op();
    800032d4:	00003097          	auipc	ra,0x3
    800032d8:	bc4080e7          	jalr	-1084(ra) # 80005e98 <begin_op>
  iput(p->cwd);
    800032dc:	1509b503          	ld	a0,336(s3)
    800032e0:	00002097          	auipc	ra,0x2
    800032e4:	e18080e7          	jalr	-488(ra) # 800050f8 <iput>
  end_op();
    800032e8:	00003097          	auipc	ra,0x3
    800032ec:	c64080e7          	jalr	-924(ra) # 80005f4c <end_op>
  p->cwd = 0;
    800032f0:	1409b823          	sd	zero,336(s3)
  acquire(&wait_lock);
    800032f4:	0000f497          	auipc	s1,0xf
    800032f8:	7ec48493          	addi	s1,s1,2028 # 80012ae0 <wait_lock>
    800032fc:	00048513          	mv	a0,s1
    80003300:	ffffe097          	auipc	ra,0xffffe
    80003304:	db8080e7          	jalr	-584(ra) # 800010b8 <acquire>
  reparent(p);
    80003308:	00098513          	mv	a0,s3
    8000330c:	00000097          	auipc	ra,0x0
    80003310:	ed0080e7          	jalr	-304(ra) # 800031dc <reparent>
  wakeup(p->parent);
    80003314:	0389b503          	ld	a0,56(s3)
    80003318:	00000097          	auipc	ra,0x0
    8000331c:	e18080e7          	jalr	-488(ra) # 80003130 <wakeup>
  acquire(&p->lock);
    80003320:	00098513          	mv	a0,s3
    80003324:	ffffe097          	auipc	ra,0xffffe
    80003328:	d94080e7          	jalr	-620(ra) # 800010b8 <acquire>
  p->xstate = status;
    8000332c:	0349a623          	sw	s4,44(s3)
  p->state = ZOMBIE;
    80003330:	00500793          	li	a5,5
    80003334:	00f9ac23          	sw	a5,24(s3)
  release(&wait_lock);
    80003338:	00048513          	mv	a0,s1
    8000333c:	ffffe097          	auipc	ra,0xffffe
    80003340:	e74080e7          	jalr	-396(ra) # 800011b0 <release>
  sched();
    80003344:	00000097          	auipc	ra,0x0
    80003348:	be4080e7          	jalr	-1052(ra) # 80002f28 <sched>
  panic("zombie exit");
    8000334c:	00007517          	auipc	a0,0x7
    80003350:	02c50513          	addi	a0,a0,44 # 8000a378 <digits+0x340>
    80003354:	ffffd097          	auipc	ra,0xffffd
    80003358:	72c080e7          	jalr	1836(ra) # 80000a80 <panic>

000000008000335c <kkill>:
// Kill the process with the given pid.
// The victim won't exit until it tries to return
// to user space (see usertrap() in trap.c).
int
kkill(int pid)
{
    8000335c:	fd010113          	addi	sp,sp,-48
    80003360:	02113423          	sd	ra,40(sp)
    80003364:	02813023          	sd	s0,32(sp)
    80003368:	00913c23          	sd	s1,24(sp)
    8000336c:	01213823          	sd	s2,16(sp)
    80003370:	01313423          	sd	s3,8(sp)
    80003374:	03010413          	addi	s0,sp,48
    80003378:	00050913          	mv	s2,a0
  struct proc *p;

  for(p = proc; p < &proc[NPROC]; p++){
    8000337c:	00010497          	auipc	s1,0x10
    80003380:	b7c48493          	addi	s1,s1,-1156 # 80012ef8 <proc>
    80003384:	00015997          	auipc	s3,0x15
    80003388:	57498993          	addi	s3,s3,1396 # 800188f8 <tickslock>
    acquire(&p->lock);
    8000338c:	00048513          	mv	a0,s1
    80003390:	ffffe097          	auipc	ra,0xffffe
    80003394:	d28080e7          	jalr	-728(ra) # 800010b8 <acquire>
    if(p->pid == pid){
    80003398:	0304a783          	lw	a5,48(s1)
    8000339c:	03278063          	beq	a5,s2,800033bc <kkill+0x60>
        p->state = RUNNABLE;
      }
      release(&p->lock);
      return 0;
    }
    release(&p->lock);
    800033a0:	00048513          	mv	a0,s1
    800033a4:	ffffe097          	auipc	ra,0xffffe
    800033a8:	e0c080e7          	jalr	-500(ra) # 800011b0 <release>
  for(p = proc; p < &proc[NPROC]; p++){
    800033ac:	16848493          	addi	s1,s1,360
    800033b0:	fd349ee3          	bne	s1,s3,8000338c <kkill+0x30>
  }
  return -1;
    800033b4:	fff00513          	li	a0,-1
    800033b8:	0280006f          	j	800033e0 <kkill+0x84>
      p->killed = 1;
    800033bc:	00100793          	li	a5,1
    800033c0:	02f4a423          	sw	a5,40(s1)
      if(p->state == SLEEPING){
    800033c4:	0184a703          	lw	a4,24(s1)
    800033c8:	00200793          	li	a5,2
    800033cc:	02f70863          	beq	a4,a5,800033fc <kkill+0xa0>
      release(&p->lock);
    800033d0:	00048513          	mv	a0,s1
    800033d4:	ffffe097          	auipc	ra,0xffffe
    800033d8:	ddc080e7          	jalr	-548(ra) # 800011b0 <release>
      return 0;
    800033dc:	00000513          	li	a0,0
}
    800033e0:	02813083          	ld	ra,40(sp)
    800033e4:	02013403          	ld	s0,32(sp)
    800033e8:	01813483          	ld	s1,24(sp)
    800033ec:	01013903          	ld	s2,16(sp)
    800033f0:	00813983          	ld	s3,8(sp)
    800033f4:	03010113          	addi	sp,sp,48
    800033f8:	00008067          	ret
        p->state = RUNNABLE;
    800033fc:	00300793          	li	a5,3
    80003400:	00f4ac23          	sw	a5,24(s1)
    80003404:	fcdff06f          	j	800033d0 <kkill+0x74>

0000000080003408 <setkilled>:

void
setkilled(struct proc *p)
{
    80003408:	fe010113          	addi	sp,sp,-32
    8000340c:	00113c23          	sd	ra,24(sp)
    80003410:	00813823          	sd	s0,16(sp)
    80003414:	00913423          	sd	s1,8(sp)
    80003418:	02010413          	addi	s0,sp,32
    8000341c:	00050493          	mv	s1,a0
  acquire(&p->lock);
    80003420:	ffffe097          	auipc	ra,0xffffe
    80003424:	c98080e7          	jalr	-872(ra) # 800010b8 <acquire>
  p->killed = 1;
    80003428:	00100793          	li	a5,1
    8000342c:	02f4a423          	sw	a5,40(s1)
  release(&p->lock);
    80003430:	00048513          	mv	a0,s1
    80003434:	ffffe097          	auipc	ra,0xffffe
    80003438:	d7c080e7          	jalr	-644(ra) # 800011b0 <release>
}
    8000343c:	01813083          	ld	ra,24(sp)
    80003440:	01013403          	ld	s0,16(sp)
    80003444:	00813483          	ld	s1,8(sp)
    80003448:	02010113          	addi	sp,sp,32
    8000344c:	00008067          	ret

0000000080003450 <killed>:

int
killed(struct proc *p)
{
    80003450:	fe010113          	addi	sp,sp,-32
    80003454:	00113c23          	sd	ra,24(sp)
    80003458:	00813823          	sd	s0,16(sp)
    8000345c:	00913423          	sd	s1,8(sp)
    80003460:	01213023          	sd	s2,0(sp)
    80003464:	02010413          	addi	s0,sp,32
    80003468:	00050493          	mv	s1,a0
  int k;
  
  acquire(&p->lock);
    8000346c:	ffffe097          	auipc	ra,0xffffe
    80003470:	c4c080e7          	jalr	-948(ra) # 800010b8 <acquire>
  k = p->killed;
    80003474:	0284a903          	lw	s2,40(s1)
  release(&p->lock);
    80003478:	00048513          	mv	a0,s1
    8000347c:	ffffe097          	auipc	ra,0xffffe
    80003480:	d34080e7          	jalr	-716(ra) # 800011b0 <release>
  return k;
}
    80003484:	00090513          	mv	a0,s2
    80003488:	01813083          	ld	ra,24(sp)
    8000348c:	01013403          	ld	s0,16(sp)
    80003490:	00813483          	ld	s1,8(sp)
    80003494:	00013903          	ld	s2,0(sp)
    80003498:	02010113          	addi	sp,sp,32
    8000349c:	00008067          	ret

00000000800034a0 <kwait>:
{
    800034a0:	fb010113          	addi	sp,sp,-80
    800034a4:	04113423          	sd	ra,72(sp)
    800034a8:	04813023          	sd	s0,64(sp)
    800034ac:	02913c23          	sd	s1,56(sp)
    800034b0:	03213823          	sd	s2,48(sp)
    800034b4:	03313423          	sd	s3,40(sp)
    800034b8:	03413023          	sd	s4,32(sp)
    800034bc:	01513c23          	sd	s5,24(sp)
    800034c0:	01613823          	sd	s6,16(sp)
    800034c4:	01713423          	sd	s7,8(sp)
    800034c8:	01813023          	sd	s8,0(sp)
    800034cc:	05010413          	addi	s0,sp,80
    800034d0:	00050b13          	mv	s6,a0
  struct proc *p = myproc();
    800034d4:	fffff097          	auipc	ra,0xfffff
    800034d8:	214080e7          	jalr	532(ra) # 800026e8 <myproc>
    800034dc:	00050913          	mv	s2,a0
  acquire(&wait_lock);
    800034e0:	0000f517          	auipc	a0,0xf
    800034e4:	60050513          	addi	a0,a0,1536 # 80012ae0 <wait_lock>
    800034e8:	ffffe097          	auipc	ra,0xffffe
    800034ec:	bd0080e7          	jalr	-1072(ra) # 800010b8 <acquire>
    havekids = 0;
    800034f0:	00000b93          	li	s7,0
        if(pp->state == ZOMBIE){
    800034f4:	00500a13          	li	s4,5
        havekids = 1;
    800034f8:	00100a93          	li	s5,1
    for(pp = proc; pp < &proc[NPROC]; pp++){
    800034fc:	00015997          	auipc	s3,0x15
    80003500:	3fc98993          	addi	s3,s3,1020 # 800188f8 <tickslock>
    sleep(p, &wait_lock);  //DOC: wait-sleep
    80003504:	0000fc17          	auipc	s8,0xf
    80003508:	5dcc0c13          	addi	s8,s8,1500 # 80012ae0 <wait_lock>
    havekids = 0;
    8000350c:	000b8713          	mv	a4,s7
    for(pp = proc; pp < &proc[NPROC]; pp++){
    80003510:	00010497          	auipc	s1,0x10
    80003514:	9e848493          	addi	s1,s1,-1560 # 80012ef8 <proc>
    80003518:	0800006f          	j	80003598 <kwait+0xf8>
          pid = pp->pid;
    8000351c:	0304a983          	lw	s3,48(s1)
          if(addr != 0 && copyout(p->pagetable, addr, (char *)&pp->xstate,
    80003520:	020b0063          	beqz	s6,80003540 <kwait+0xa0>
    80003524:	00400693          	li	a3,4
    80003528:	02c48613          	addi	a2,s1,44
    8000352c:	000b0593          	mv	a1,s6
    80003530:	05093503          	ld	a0,80(s2)
    80003534:	fffff097          	auipc	ra,0xfffff
    80003538:	d40080e7          	jalr	-704(ra) # 80002274 <copyout>
    8000353c:	02054863          	bltz	a0,8000356c <kwait+0xcc>
          freeproc(pp);
    80003540:	00048513          	mv	a0,s1
    80003544:	fffff097          	auipc	ra,0xfffff
    80003548:	4b8080e7          	jalr	1208(ra) # 800029fc <freeproc>
          release(&pp->lock);
    8000354c:	00048513          	mv	a0,s1
    80003550:	ffffe097          	auipc	ra,0xffffe
    80003554:	c60080e7          	jalr	-928(ra) # 800011b0 <release>
          release(&wait_lock);
    80003558:	0000f517          	auipc	a0,0xf
    8000355c:	58850513          	addi	a0,a0,1416 # 80012ae0 <wait_lock>
    80003560:	ffffe097          	auipc	ra,0xffffe
    80003564:	c50080e7          	jalr	-944(ra) # 800011b0 <release>
          return pid;
    80003568:	0880006f          	j	800035f0 <kwait+0x150>
            release(&pp->lock);
    8000356c:	00048513          	mv	a0,s1
    80003570:	ffffe097          	auipc	ra,0xffffe
    80003574:	c40080e7          	jalr	-960(ra) # 800011b0 <release>
            release(&wait_lock);
    80003578:	0000f517          	auipc	a0,0xf
    8000357c:	56850513          	addi	a0,a0,1384 # 80012ae0 <wait_lock>
    80003580:	ffffe097          	auipc	ra,0xffffe
    80003584:	c30080e7          	jalr	-976(ra) # 800011b0 <release>
            return -1;
    80003588:	fff00993          	li	s3,-1
    8000358c:	0640006f          	j	800035f0 <kwait+0x150>
    for(pp = proc; pp < &proc[NPROC]; pp++){
    80003590:	16848493          	addi	s1,s1,360
    80003594:	03348a63          	beq	s1,s3,800035c8 <kwait+0x128>
      if(pp->parent == p){
    80003598:	0384b783          	ld	a5,56(s1)
    8000359c:	ff279ae3          	bne	a5,s2,80003590 <kwait+0xf0>
        acquire(&pp->lock);
    800035a0:	00048513          	mv	a0,s1
    800035a4:	ffffe097          	auipc	ra,0xffffe
    800035a8:	b14080e7          	jalr	-1260(ra) # 800010b8 <acquire>
        if(pp->state == ZOMBIE){
    800035ac:	0184a783          	lw	a5,24(s1)
    800035b0:	f74786e3          	beq	a5,s4,8000351c <kwait+0x7c>
        release(&pp->lock);
    800035b4:	00048513          	mv	a0,s1
    800035b8:	ffffe097          	auipc	ra,0xffffe
    800035bc:	bf8080e7          	jalr	-1032(ra) # 800011b0 <release>
        havekids = 1;
    800035c0:	000a8713          	mv	a4,s5
    800035c4:	fcdff06f          	j	80003590 <kwait+0xf0>
    if(!havekids || killed(p)){
    800035c8:	00070a63          	beqz	a4,800035dc <kwait+0x13c>
    800035cc:	00090513          	mv	a0,s2
    800035d0:	00000097          	auipc	ra,0x0
    800035d4:	e80080e7          	jalr	-384(ra) # 80003450 <killed>
    800035d8:	04050663          	beqz	a0,80003624 <kwait+0x184>
      release(&wait_lock);
    800035dc:	0000f517          	auipc	a0,0xf
    800035e0:	50450513          	addi	a0,a0,1284 # 80012ae0 <wait_lock>
    800035e4:	ffffe097          	auipc	ra,0xffffe
    800035e8:	bcc080e7          	jalr	-1076(ra) # 800011b0 <release>
      return -1;
    800035ec:	fff00993          	li	s3,-1
}
    800035f0:	00098513          	mv	a0,s3
    800035f4:	04813083          	ld	ra,72(sp)
    800035f8:	04013403          	ld	s0,64(sp)
    800035fc:	03813483          	ld	s1,56(sp)
    80003600:	03013903          	ld	s2,48(sp)
    80003604:	02813983          	ld	s3,40(sp)
    80003608:	02013a03          	ld	s4,32(sp)
    8000360c:	01813a83          	ld	s5,24(sp)
    80003610:	01013b03          	ld	s6,16(sp)
    80003614:	00813b83          	ld	s7,8(sp)
    80003618:	00013c03          	ld	s8,0(sp)
    8000361c:	05010113          	addi	sp,sp,80
    80003620:	00008067          	ret
    sleep(p, &wait_lock);  //DOC: wait-sleep
    80003624:	000c0593          	mv	a1,s8
    80003628:	00090513          	mv	a0,s2
    8000362c:	00000097          	auipc	ra,0x0
    80003630:	a74080e7          	jalr	-1420(ra) # 800030a0 <sleep>
    havekids = 0;
    80003634:	ed9ff06f          	j	8000350c <kwait+0x6c>

0000000080003638 <either_copyout>:
// Copy to either a user address, or kernel address,
// depending on usr_dst.
// Returns 0 on success, -1 on error.
int
either_copyout(int user_dst, uint64 dst, void *src, uint64 len)
{
    80003638:	fd010113          	addi	sp,sp,-48
    8000363c:	02113423          	sd	ra,40(sp)
    80003640:	02813023          	sd	s0,32(sp)
    80003644:	00913c23          	sd	s1,24(sp)
    80003648:	01213823          	sd	s2,16(sp)
    8000364c:	01313423          	sd	s3,8(sp)
    80003650:	01413023          	sd	s4,0(sp)
    80003654:	03010413          	addi	s0,sp,48
    80003658:	00050493          	mv	s1,a0
    8000365c:	00058913          	mv	s2,a1
    80003660:	00060993          	mv	s3,a2
    80003664:	00068a13          	mv	s4,a3
  struct proc *p = myproc();
    80003668:	fffff097          	auipc	ra,0xfffff
    8000366c:	080080e7          	jalr	128(ra) # 800026e8 <myproc>
  if(user_dst){
    80003670:	02048e63          	beqz	s1,800036ac <either_copyout+0x74>
    return copyout(p->pagetable, dst, src, len);
    80003674:	000a0693          	mv	a3,s4
    80003678:	00098613          	mv	a2,s3
    8000367c:	00090593          	mv	a1,s2
    80003680:	05053503          	ld	a0,80(a0)
    80003684:	fffff097          	auipc	ra,0xfffff
    80003688:	bf0080e7          	jalr	-1040(ra) # 80002274 <copyout>
  } else {
    memmove((char *)dst, src, len);
    return 0;
  }
}
    8000368c:	02813083          	ld	ra,40(sp)
    80003690:	02013403          	ld	s0,32(sp)
    80003694:	01813483          	ld	s1,24(sp)
    80003698:	01013903          	ld	s2,16(sp)
    8000369c:	00813983          	ld	s3,8(sp)
    800036a0:	00013a03          	ld	s4,0(sp)
    800036a4:	03010113          	addi	sp,sp,48
    800036a8:	00008067          	ret
    memmove((char *)dst, src, len);
    800036ac:	000a061b          	sext.w	a2,s4
    800036b0:	00098593          	mv	a1,s3
    800036b4:	00090513          	mv	a0,s2
    800036b8:	ffffe097          	auipc	ra,0xffffe
    800036bc:	bec080e7          	jalr	-1044(ra) # 800012a4 <memmove>
    return 0;
    800036c0:	00048513          	mv	a0,s1
    800036c4:	fc9ff06f          	j	8000368c <either_copyout+0x54>

00000000800036c8 <either_copyin>:
// Copy from either a user address, or kernel address,
// depending on usr_src.
// Returns 0 on success, -1 on error.
int
either_copyin(void *dst, int user_src, uint64 src, uint64 len)
{
    800036c8:	fd010113          	addi	sp,sp,-48
    800036cc:	02113423          	sd	ra,40(sp)
    800036d0:	02813023          	sd	s0,32(sp)
    800036d4:	00913c23          	sd	s1,24(sp)
    800036d8:	01213823          	sd	s2,16(sp)
    800036dc:	01313423          	sd	s3,8(sp)
    800036e0:	01413023          	sd	s4,0(sp)
    800036e4:	03010413          	addi	s0,sp,48
    800036e8:	00050913          	mv	s2,a0
    800036ec:	00058493          	mv	s1,a1
    800036f0:	00060993          	mv	s3,a2
    800036f4:	00068a13          	mv	s4,a3
  struct proc *p = myproc();
    800036f8:	fffff097          	auipc	ra,0xfffff
    800036fc:	ff0080e7          	jalr	-16(ra) # 800026e8 <myproc>
  if(user_src){
    80003700:	02048e63          	beqz	s1,8000373c <either_copyin+0x74>
    return copyin(p->pagetable, dst, src, len);
    80003704:	000a0693          	mv	a3,s4
    80003708:	00098613          	mv	a2,s3
    8000370c:	00090593          	mv	a1,s2
    80003710:	05053503          	ld	a0,80(a0)
    80003714:	fffff097          	auipc	ra,0xfffff
    80003718:	cc8080e7          	jalr	-824(ra) # 800023dc <copyin>
  } else {
    memmove(dst, (char*)src, len);
    return 0;
  }
}
    8000371c:	02813083          	ld	ra,40(sp)
    80003720:	02013403          	ld	s0,32(sp)
    80003724:	01813483          	ld	s1,24(sp)
    80003728:	01013903          	ld	s2,16(sp)
    8000372c:	00813983          	ld	s3,8(sp)
    80003730:	00013a03          	ld	s4,0(sp)
    80003734:	03010113          	addi	sp,sp,48
    80003738:	00008067          	ret
    memmove(dst, (char*)src, len);
    8000373c:	000a061b          	sext.w	a2,s4
    80003740:	00098593          	mv	a1,s3
    80003744:	00090513          	mv	a0,s2
    80003748:	ffffe097          	auipc	ra,0xffffe
    8000374c:	b5c080e7          	jalr	-1188(ra) # 800012a4 <memmove>
    return 0;
    80003750:	00048513          	mv	a0,s1
    80003754:	fc9ff06f          	j	8000371c <either_copyin+0x54>

0000000080003758 <procdump>:
// Print a process listing to console.  For debugging.
// Runs when user types ^P on console.
// No lock to avoid wedging a stuck machine further.
void
procdump(void)
{
    80003758:	fb010113          	addi	sp,sp,-80
    8000375c:	04113423          	sd	ra,72(sp)
    80003760:	04813023          	sd	s0,64(sp)
    80003764:	02913c23          	sd	s1,56(sp)
    80003768:	03213823          	sd	s2,48(sp)
    8000376c:	03313423          	sd	s3,40(sp)
    80003770:	03413023          	sd	s4,32(sp)
    80003774:	01513c23          	sd	s5,24(sp)
    80003778:	01613823          	sd	s6,16(sp)
    8000377c:	01713423          	sd	s7,8(sp)
    80003780:	05010413          	addi	s0,sp,80
  [ZOMBIE]    "zombie"
  };
  struct proc *p;
  char *state;

  printf("\n");
    80003784:	00007517          	auipc	a0,0x7
    80003788:	aac50513          	addi	a0,a0,-1364 # 8000a230 <digits+0x1f8>
    8000378c:	ffffd097          	auipc	ra,0xffffd
    80003790:	f1c080e7          	jalr	-228(ra) # 800006a8 <printf>
  for(p = proc; p < &proc[NPROC]; p++){
    80003794:	00010497          	auipc	s1,0x10
    80003798:	8bc48493          	addi	s1,s1,-1860 # 80013050 <proc+0x158>
    8000379c:	00015917          	auipc	s2,0x15
    800037a0:	2b490913          	addi	s2,s2,692 # 80018a50 <bcache+0x140>
    if(p->state == UNUSED)
      continue;
    if(p->state >= 0 && p->state < NELEM(states) && states[p->state])
    800037a4:	00500b13          	li	s6,5
      state = states[p->state];
    else
      state = "???";
    800037a8:	00007997          	auipc	s3,0x7
    800037ac:	be098993          	addi	s3,s3,-1056 # 8000a388 <digits+0x350>
    printf("%d %s %s", p->pid, state, p->name);
    800037b0:	00007a97          	auipc	s5,0x7
    800037b4:	be0a8a93          	addi	s5,s5,-1056 # 8000a390 <digits+0x358>
    printf("\n");
    800037b8:	00007a17          	auipc	s4,0x7
    800037bc:	a78a0a13          	addi	s4,s4,-1416 # 8000a230 <digits+0x1f8>
    if(p->state >= 0 && p->state < NELEM(states) && states[p->state])
    800037c0:	00007b97          	auipc	s7,0x7
    800037c4:	c10b8b93          	addi	s7,s7,-1008 # 8000a3d0 <states.0>
    800037c8:	0280006f          	j	800037f0 <procdump+0x98>
    printf("%d %s %s", p->pid, state, p->name);
    800037cc:	ed86a583          	lw	a1,-296(a3)
    800037d0:	000a8513          	mv	a0,s5
    800037d4:	ffffd097          	auipc	ra,0xffffd
    800037d8:	ed4080e7          	jalr	-300(ra) # 800006a8 <printf>
    printf("\n");
    800037dc:	000a0513          	mv	a0,s4
    800037e0:	ffffd097          	auipc	ra,0xffffd
    800037e4:	ec8080e7          	jalr	-312(ra) # 800006a8 <printf>
  for(p = proc; p < &proc[NPROC]; p++){
    800037e8:	16848493          	addi	s1,s1,360
    800037ec:	03248a63          	beq	s1,s2,80003820 <procdump+0xc8>
    if(p->state == UNUSED)
    800037f0:	00048693          	mv	a3,s1
    800037f4:	ec04a783          	lw	a5,-320(s1)
    800037f8:	fe0788e3          	beqz	a5,800037e8 <procdump+0x90>
      state = "???";
    800037fc:	00098613          	mv	a2,s3
    if(p->state >= 0 && p->state < NELEM(states) && states[p->state])
    80003800:	fcfb66e3          	bltu	s6,a5,800037cc <procdump+0x74>
    80003804:	02079713          	slli	a4,a5,0x20
    80003808:	01d75793          	srli	a5,a4,0x1d
    8000380c:	00fb87b3          	add	a5,s7,a5
    80003810:	0007b603          	ld	a2,0(a5)
    80003814:	fa061ce3          	bnez	a2,800037cc <procdump+0x74>
      state = "???";
    80003818:	00098613          	mv	a2,s3
    8000381c:	fb1ff06f          	j	800037cc <procdump+0x74>
  }
}
    80003820:	04813083          	ld	ra,72(sp)
    80003824:	04013403          	ld	s0,64(sp)
    80003828:	03813483          	ld	s1,56(sp)
    8000382c:	03013903          	ld	s2,48(sp)
    80003830:	02813983          	ld	s3,40(sp)
    80003834:	02013a03          	ld	s4,32(sp)
    80003838:	01813a83          	ld	s5,24(sp)
    8000383c:	01013b03          	ld	s6,16(sp)
    80003840:	00813b83          	ld	s7,8(sp)
    80003844:	05010113          	addi	sp,sp,80
    80003848:	00008067          	ret

000000008000384c <swtch>:
# Save current registers in old. Load from new.	


.globl swtch
swtch:
        sd ra, 0(a0)
    8000384c:	00153023          	sd	ra,0(a0)
        sd sp, 8(a0)
    80003850:	00253423          	sd	sp,8(a0)
        sd s0, 16(a0)
    80003854:	00853823          	sd	s0,16(a0)
        sd s1, 24(a0)
    80003858:	00953c23          	sd	s1,24(a0)
        sd s2, 32(a0)
    8000385c:	03253023          	sd	s2,32(a0)
        sd s3, 40(a0)
    80003860:	03353423          	sd	s3,40(a0)
        sd s4, 48(a0)
    80003864:	03453823          	sd	s4,48(a0)
        sd s5, 56(a0)
    80003868:	03553c23          	sd	s5,56(a0)
        sd s6, 64(a0)
    8000386c:	05653023          	sd	s6,64(a0)
        sd s7, 72(a0)
    80003870:	05753423          	sd	s7,72(a0)
        sd s8, 80(a0)
    80003874:	05853823          	sd	s8,80(a0)
        sd s9, 88(a0)
    80003878:	05953c23          	sd	s9,88(a0)
        sd s10, 96(a0)
    8000387c:	07a53023          	sd	s10,96(a0)
        sd s11, 104(a0)
    80003880:	07b53423          	sd	s11,104(a0)

        ld ra, 0(a1)
    80003884:	0005b083          	ld	ra,0(a1)
        ld sp, 8(a1)
    80003888:	0085b103          	ld	sp,8(a1)
        ld s0, 16(a1)
    8000388c:	0105b403          	ld	s0,16(a1)
        ld s1, 24(a1)
    80003890:	0185b483          	ld	s1,24(a1)
        ld s2, 32(a1)
    80003894:	0205b903          	ld	s2,32(a1)
        ld s3, 40(a1)
    80003898:	0285b983          	ld	s3,40(a1)
        ld s4, 48(a1)
    8000389c:	0305ba03          	ld	s4,48(a1)
        ld s5, 56(a1)
    800038a0:	0385ba83          	ld	s5,56(a1)
        ld s6, 64(a1)
    800038a4:	0405bb03          	ld	s6,64(a1)
        ld s7, 72(a1)
    800038a8:	0485bb83          	ld	s7,72(a1)
        ld s8, 80(a1)
    800038ac:	0505bc03          	ld	s8,80(a1)
        ld s9, 88(a1)
    800038b0:	0585bc83          	ld	s9,88(a1)
        ld s10, 96(a1)
    800038b4:	0605bd03          	ld	s10,96(a1)
        ld s11, 104(a1)
    800038b8:	0685bd83          	ld	s11,104(a1)
        
        ret
    800038bc:	00008067          	ret

00000000800038c0 <trapinit>:

extern int devintr();

void
trapinit(void)
{
    800038c0:	ff010113          	addi	sp,sp,-16
    800038c4:	00113423          	sd	ra,8(sp)
    800038c8:	00813023          	sd	s0,0(sp)
    800038cc:	01010413          	addi	s0,sp,16
  initlock(&tickslock, "time");
    800038d0:	00007597          	auipc	a1,0x7
    800038d4:	b3058593          	addi	a1,a1,-1232 # 8000a400 <states.0+0x30>
    800038d8:	00015517          	auipc	a0,0x15
    800038dc:	02050513          	addi	a0,a0,32 # 800188f8 <tickslock>
    800038e0:	ffffd097          	auipc	ra,0xffffd
    800038e4:	6f4080e7          	jalr	1780(ra) # 80000fd4 <initlock>
}
    800038e8:	00813083          	ld	ra,8(sp)
    800038ec:	00013403          	ld	s0,0(sp)
    800038f0:	01010113          	addi	sp,sp,16
    800038f4:	00008067          	ret

00000000800038f8 <trapinithart>:

// set up to take exceptions and traps while in the kernel.
void
trapinithart(void)
{
    800038f8:	ff010113          	addi	sp,sp,-16
    800038fc:	00813423          	sd	s0,8(sp)
    80003900:	01010413          	addi	s0,sp,16
  asm volatile("csrw stvec, %0" : : "r" (x));
    80003904:	00005797          	auipc	a5,0x5
    80003908:	9bc78793          	addi	a5,a5,-1604 # 800082c0 <kernelvec>
    8000390c:	10579073          	csrw	stvec,a5
  w_stvec((uint64)kernelvec);
}
    80003910:	00813403          	ld	s0,8(sp)
    80003914:	01010113          	addi	sp,sp,16
    80003918:	00008067          	ret

000000008000391c <prepare_return>:
//
// set up trapframe and control registers for a return to user space
//
void
prepare_return(void)
{
    8000391c:	ff010113          	addi	sp,sp,-16
    80003920:	00113423          	sd	ra,8(sp)
    80003924:	00813023          	sd	s0,0(sp)
    80003928:	01010413          	addi	s0,sp,16
  struct proc *p = myproc();
    8000392c:	fffff097          	auipc	ra,0xfffff
    80003930:	dbc080e7          	jalr	-580(ra) # 800026e8 <myproc>
  asm volatile("csrr %0, sstatus" : "=r" (x) );
    80003934:	100027f3          	csrr	a5,sstatus
  w_sstatus(r_sstatus() & ~SSTATUS_SIE);
    80003938:	ffd7f793          	andi	a5,a5,-3
  asm volatile("csrw sstatus, %0" : : "r" (x));
    8000393c:	10079073          	csrw	sstatus,a5
  // kerneltrap() to usertrap(). because a trap from kernel
  // code to usertrap would be a disaster, turn off interrupts.
  intr_off();

  // send syscalls, interrupts, and exceptions to uservec in trampoline.S
  uint64 trampoline_uservec = TRAMPOLINE + (uservec - trampoline);
    80003940:	04000737          	lui	a4,0x4000
    80003944:	00005797          	auipc	a5,0x5
    80003948:	6bc78793          	addi	a5,a5,1724 # 80009000 <_trampoline>
    8000394c:	00005697          	auipc	a3,0x5
    80003950:	6b468693          	addi	a3,a3,1716 # 80009000 <_trampoline>
    80003954:	40d787b3          	sub	a5,a5,a3
    80003958:	fff70713          	addi	a4,a4,-1 # 3ffffff <_entry-0x7c000001>
    8000395c:	00c71713          	slli	a4,a4,0xc
    80003960:	00e787b3          	add	a5,a5,a4
  asm volatile("csrw stvec, %0" : : "r" (x));
    80003964:	10579073          	csrw	stvec,a5
  w_stvec(trampoline_uservec);

  // set up trapframe values that uservec will need when
  // the process next traps into the kernel.
  p->trapframe->kernel_satp = r_satp();         // kernel page table
    80003968:	05853783          	ld	a5,88(a0)
  asm volatile("csrr %0, satp" : "=r" (x) );
    8000396c:	18002773          	csrr	a4,satp
    80003970:	00e7b023          	sd	a4,0(a5)
  p->trapframe->kernel_sp = p->kstack + PGSIZE; // process's kernel stack
    80003974:	05853703          	ld	a4,88(a0)
    80003978:	04053783          	ld	a5,64(a0)
    8000397c:	000016b7          	lui	a3,0x1
    80003980:	00d787b3          	add	a5,a5,a3
    80003984:	00f73423          	sd	a5,8(a4)
  p->trapframe->kernel_trap = (uint64)usertrap;
    80003988:	05853783          	ld	a5,88(a0)
    8000398c:	00000717          	auipc	a4,0x0
    80003990:	17c70713          	addi	a4,a4,380 # 80003b08 <usertrap>
    80003994:	00e7b823          	sd	a4,16(a5)
  p->trapframe->kernel_hartid = r_tp();         // hartid for cpuid()
    80003998:	05853783          	ld	a5,88(a0)
  asm volatile("mv %0, tp" : "=r" (x) );
    8000399c:	00020713          	mv	a4,tp
    800039a0:	02e7b023          	sd	a4,32(a5)
  asm volatile("csrr %0, sstatus" : "=r" (x) );
    800039a4:	100027f3          	csrr	a5,sstatus
  // set up the registers that trampoline.S's sret will use
  // to get to user space.
  
  // set S Previous Privilege mode to User.
  unsigned long x = r_sstatus();
  x &= ~SSTATUS_SPP; // clear SPP to 0 for user mode
    800039a8:	eff7f793          	andi	a5,a5,-257
  x |= SSTATUS_SPIE; // enable interrupts in user mode
    800039ac:	0207e793          	ori	a5,a5,32
  asm volatile("csrw sstatus, %0" : : "r" (x));
    800039b0:	10079073          	csrw	sstatus,a5
  w_sstatus(x);

  // set S Exception Program Counter to the saved user pc.
  w_sepc(p->trapframe->epc);
    800039b4:	05853783          	ld	a5,88(a0)
  asm volatile("csrw sepc, %0" : : "r" (x));
    800039b8:	0187b783          	ld	a5,24(a5)
    800039bc:	14179073          	csrw	sepc,a5
}
    800039c0:	00813083          	ld	ra,8(sp)
    800039c4:	00013403          	ld	s0,0(sp)
    800039c8:	01010113          	addi	sp,sp,16
    800039cc:	00008067          	ret

00000000800039d0 <clockintr>:
  w_sstatus(sstatus);
}

void
clockintr()
{
    800039d0:	fe010113          	addi	sp,sp,-32
    800039d4:	00113c23          	sd	ra,24(sp)
    800039d8:	00813823          	sd	s0,16(sp)
    800039dc:	00913423          	sd	s1,8(sp)
    800039e0:	02010413          	addi	s0,sp,32
  if(cpuid() == 0){
    800039e4:	fffff097          	auipc	ra,0xfffff
    800039e8:	cb4080e7          	jalr	-844(ra) # 80002698 <cpuid>
    800039ec:	00050c63          	beqz	a0,80003a04 <clockintr+0x34>

  // ask for the next timer interrupt. this also clears
  // the interrupt request. 1000000 is about a tenth
  // of a second.
//  w_stimecmp(r_time() + 1000000);
} 
    800039f0:	01813083          	ld	ra,24(sp)
    800039f4:	01013403          	ld	s0,16(sp)
    800039f8:	00813483          	ld	s1,8(sp)
    800039fc:	02010113          	addi	sp,sp,32
    80003a00:	00008067          	ret
    acquire(&tickslock);
    80003a04:	00015497          	auipc	s1,0x15
    80003a08:	ef448493          	addi	s1,s1,-268 # 800188f8 <tickslock>
    80003a0c:	00048513          	mv	a0,s1
    80003a10:	ffffd097          	auipc	ra,0xffffd
    80003a14:	6a8080e7          	jalr	1704(ra) # 800010b8 <acquire>
    ticks++;
    80003a18:	00007517          	auipc	a0,0x7
    80003a1c:	fb050513          	addi	a0,a0,-80 # 8000a9c8 <ticks>
    80003a20:	00052783          	lw	a5,0(a0)
    80003a24:	0017879b          	addiw	a5,a5,1
    80003a28:	00f52023          	sw	a5,0(a0)
    wakeup(&ticks);
    80003a2c:	fffff097          	auipc	ra,0xfffff
    80003a30:	704080e7          	jalr	1796(ra) # 80003130 <wakeup>
    release(&tickslock);
    80003a34:	00048513          	mv	a0,s1
    80003a38:	ffffd097          	auipc	ra,0xffffd
    80003a3c:	778080e7          	jalr	1912(ra) # 800011b0 <release>
} 
    80003a40:	fb1ff06f          	j	800039f0 <clockintr+0x20>

0000000080003a44 <devintr>:
// returns 2 if timer interrupt,
// 1 if other device,
// 0 if not recognized.
int
devintr()
{
    80003a44:	fe010113          	addi	sp,sp,-32
    80003a48:	00113c23          	sd	ra,24(sp)
    80003a4c:	00813823          	sd	s0,16(sp)
    80003a50:	00913423          	sd	s1,8(sp)
    80003a54:	02010413          	addi	s0,sp,32
  asm volatile("csrr %0, scause" : "=r" (x) );
    80003a58:	14202773          	csrr	a4,scause
  uint64 scause = r_scause();

  if(scause == 0x8000000000000009L){
    80003a5c:	fff00793          	li	a5,-1
    80003a60:	03f79793          	slli	a5,a5,0x3f
    80003a64:	00978793          	addi	a5,a5,9
    80003a68:	02f70663          	beq	a4,a5,80003a94 <devintr+0x50>
    // now allowed to interrupt again.
    if(irq)
      plic_complete(irq);

    return 1;
  } else if(scause == 0x8000000000000005L){
    80003a6c:	fff00793          	li	a5,-1
    80003a70:	03f79793          	slli	a5,a5,0x3f
    80003a74:	00578793          	addi	a5,a5,5
    // timer interrupt.
    clockintr();
    return 2;
  } else {
    return 0;
    80003a78:	00000513          	li	a0,0
  } else if(scause == 0x8000000000000005L){
    80003a7c:	06f70e63          	beq	a4,a5,80003af8 <devintr+0xb4>
  }
}
    80003a80:	01813083          	ld	ra,24(sp)
    80003a84:	01013403          	ld	s0,16(sp)
    80003a88:	00813483          	ld	s1,8(sp)
    80003a8c:	02010113          	addi	sp,sp,32
    80003a90:	00008067          	ret
    int irq = plic_claim();
    80003a94:	00005097          	auipc	ra,0x5
    80003a98:	940080e7          	jalr	-1728(ra) # 800083d4 <plic_claim>
    80003a9c:	00050493          	mv	s1,a0
    if(irq == UART0_IRQ){
    80003aa0:	00a00793          	li	a5,10
    80003aa4:	02f50e63          	beq	a0,a5,80003ae0 <devintr+0x9c>
    } else if(irq == VIRTIO0_IRQ){
    80003aa8:	00100793          	li	a5,1
    80003aac:	04f50063          	beq	a0,a5,80003aec <devintr+0xa8>
    return 1;
    80003ab0:	00100513          	li	a0,1
    } else if(irq){
    80003ab4:	fc0486e3          	beqz	s1,80003a80 <devintr+0x3c>
      printf("unexpected interrupt irq=%d\n", irq);
    80003ab8:	00048593          	mv	a1,s1
    80003abc:	00007517          	auipc	a0,0x7
    80003ac0:	94c50513          	addi	a0,a0,-1716 # 8000a408 <states.0+0x38>
    80003ac4:	ffffd097          	auipc	ra,0xffffd
    80003ac8:	be4080e7          	jalr	-1052(ra) # 800006a8 <printf>
      plic_complete(irq);
    80003acc:	00048513          	mv	a0,s1
    80003ad0:	00005097          	auipc	ra,0x5
    80003ad4:	93c080e7          	jalr	-1732(ra) # 8000840c <plic_complete>
    return 1;
    80003ad8:	00100513          	li	a0,1
    80003adc:	fa5ff06f          	j	80003a80 <devintr+0x3c>
      uartintr();
    80003ae0:	ffffd097          	auipc	ra,0xffffd
    80003ae4:	24c080e7          	jalr	588(ra) # 80000d2c <uartintr>
    80003ae8:	fe5ff06f          	j	80003acc <devintr+0x88>
      virtio_disk_intr();
    80003aec:	00005097          	auipc	ra,0x5
    80003af0:	f5c080e7          	jalr	-164(ra) # 80008a48 <virtio_disk_intr>
    80003af4:	fd9ff06f          	j	80003acc <devintr+0x88>
    clockintr();
    80003af8:	00000097          	auipc	ra,0x0
    80003afc:	ed8080e7          	jalr	-296(ra) # 800039d0 <clockintr>
    return 2;
    80003b00:	00200513          	li	a0,2
    80003b04:	f7dff06f          	j	80003a80 <devintr+0x3c>

0000000080003b08 <usertrap>:
{
    80003b08:	fe010113          	addi	sp,sp,-32
    80003b0c:	00113c23          	sd	ra,24(sp)
    80003b10:	00813823          	sd	s0,16(sp)
    80003b14:	00913423          	sd	s1,8(sp)
    80003b18:	01213023          	sd	s2,0(sp)
    80003b1c:	02010413          	addi	s0,sp,32
  asm volatile("csrr %0, sstatus" : "=r" (x) );
    80003b20:	100027f3          	csrr	a5,sstatus
  if((r_sstatus() & SSTATUS_SPP) != 0)
    80003b24:	1007f793          	andi	a5,a5,256
    80003b28:	08079e63          	bnez	a5,80003bc4 <usertrap+0xbc>
  asm volatile("csrw stvec, %0" : : "r" (x));
    80003b2c:	00004797          	auipc	a5,0x4
    80003b30:	79478793          	addi	a5,a5,1940 # 800082c0 <kernelvec>
    80003b34:	10579073          	csrw	stvec,a5
  struct proc *p = myproc();
    80003b38:	fffff097          	auipc	ra,0xfffff
    80003b3c:	bb0080e7          	jalr	-1104(ra) # 800026e8 <myproc>
    80003b40:	00050493          	mv	s1,a0
  p->trapframe->epc = r_sepc();
    80003b44:	05853783          	ld	a5,88(a0)
  asm volatile("csrr %0, sepc" : "=r" (x) );
    80003b48:	14102773          	csrr	a4,sepc
    80003b4c:	00e7bc23          	sd	a4,24(a5)
  asm volatile("csrr %0, scause" : "=r" (x) );
    80003b50:	14202773          	csrr	a4,scause
  if(r_scause() == 8){
    80003b54:	00800793          	li	a5,8
    80003b58:	06f70e63          	beq	a4,a5,80003bd4 <usertrap+0xcc>
  } else if((which_dev = devintr()) != 0){
    80003b5c:	00000097          	auipc	ra,0x0
    80003b60:	ee8080e7          	jalr	-280(ra) # 80003a44 <devintr>
    80003b64:	00050913          	mv	s2,a0
    80003b68:	10051a63          	bnez	a0,80003c7c <usertrap+0x174>
    80003b6c:	14202773          	csrr	a4,scause
  } else if((r_scause() == 15 || r_scause() == 13) &&
    80003b70:	00f00793          	li	a5,15
    80003b74:	0ef70263          	beq	a4,a5,80003c58 <usertrap+0x150>
    80003b78:	14202773          	csrr	a4,scause
    80003b7c:	00d00793          	li	a5,13
    80003b80:	0cf70c63          	beq	a4,a5,80003c58 <usertrap+0x150>
    80003b84:	142025f3          	csrr	a1,scause
    printf("usertrap(): unexpected scause 0x%lx pid=%d\n", r_scause(), p->pid);
    80003b88:	0304a603          	lw	a2,48(s1)
    80003b8c:	00007517          	auipc	a0,0x7
    80003b90:	8bc50513          	addi	a0,a0,-1860 # 8000a448 <states.0+0x78>
    80003b94:	ffffd097          	auipc	ra,0xffffd
    80003b98:	b14080e7          	jalr	-1260(ra) # 800006a8 <printf>
  asm volatile("csrr %0, sepc" : "=r" (x) );
    80003b9c:	141025f3          	csrr	a1,sepc
  asm volatile("csrr %0, stval" : "=r" (x) );
    80003ba0:	14302673          	csrr	a2,stval
    printf("            sepc=0x%lx stval=0x%lx\n", r_sepc(), r_stval());
    80003ba4:	00007517          	auipc	a0,0x7
    80003ba8:	8d450513          	addi	a0,a0,-1836 # 8000a478 <states.0+0xa8>
    80003bac:	ffffd097          	auipc	ra,0xffffd
    80003bb0:	afc080e7          	jalr	-1284(ra) # 800006a8 <printf>
    setkilled(p);
    80003bb4:	00048513          	mv	a0,s1
    80003bb8:	00000097          	auipc	ra,0x0
    80003bbc:	850080e7          	jalr	-1968(ra) # 80003408 <setkilled>
    80003bc0:	0440006f          	j	80003c04 <usertrap+0xfc>
    panic("usertrap: not from user mode");
    80003bc4:	00007517          	auipc	a0,0x7
    80003bc8:	86450513          	addi	a0,a0,-1948 # 8000a428 <states.0+0x58>
    80003bcc:	ffffd097          	auipc	ra,0xffffd
    80003bd0:	eb4080e7          	jalr	-332(ra) # 80000a80 <panic>
    if(killed(p))
    80003bd4:	00000097          	auipc	ra,0x0
    80003bd8:	87c080e7          	jalr	-1924(ra) # 80003450 <killed>
    80003bdc:	06051663          	bnez	a0,80003c48 <usertrap+0x140>
    p->trapframe->epc += 4;
    80003be0:	0584b703          	ld	a4,88(s1)
    80003be4:	01873783          	ld	a5,24(a4)
    80003be8:	00478793          	addi	a5,a5,4
    80003bec:	00f73c23          	sd	a5,24(a4)
  asm volatile("csrr %0, sstatus" : "=r" (x) );
    80003bf0:	100027f3          	csrr	a5,sstatus
  w_sstatus(r_sstatus() | SSTATUS_SIE);
    80003bf4:	0027e793          	ori	a5,a5,2
  asm volatile("csrw sstatus, %0" : : "r" (x));
    80003bf8:	10079073          	csrw	sstatus,a5
    syscall();
    80003bfc:	00000097          	auipc	ra,0x0
    80003c00:	400080e7          	jalr	1024(ra) # 80003ffc <syscall>
  if(killed(p))
    80003c04:	00048513          	mv	a0,s1
    80003c08:	00000097          	auipc	ra,0x0
    80003c0c:	848080e7          	jalr	-1976(ra) # 80003450 <killed>
    80003c10:	08051063          	bnez	a0,80003c90 <usertrap+0x188>
  prepare_return();
    80003c14:	00000097          	auipc	ra,0x0
    80003c18:	d08080e7          	jalr	-760(ra) # 8000391c <prepare_return>
  uint64 satp = MAKE_SATP(p->pagetable);
    80003c1c:	0504b503          	ld	a0,80(s1)
    80003c20:	00c55513          	srli	a0,a0,0xc
    80003c24:	fff00793          	li	a5,-1
    80003c28:	03f79793          	slli	a5,a5,0x3f
    80003c2c:	00f56533          	or	a0,a0,a5
}
    80003c30:	01813083          	ld	ra,24(sp)
    80003c34:	01013403          	ld	s0,16(sp)
    80003c38:	00813483          	ld	s1,8(sp)
    80003c3c:	00013903          	ld	s2,0(sp)
    80003c40:	02010113          	addi	sp,sp,32
    80003c44:	00008067          	ret
      kexit(-1);
    80003c48:	fff00513          	li	a0,-1
    80003c4c:	fffff097          	auipc	ra,0xfffff
    80003c50:	614080e7          	jalr	1556(ra) # 80003260 <kexit>
    80003c54:	f8dff06f          	j	80003be0 <usertrap+0xd8>
  asm volatile("csrr %0, stval" : "=r" (x) );
    80003c58:	143025f3          	csrr	a1,stval
  asm volatile("csrr %0, scause" : "=r" (x) );
    80003c5c:	14202673          	csrr	a2,scause
            vmfault(p->pagetable, r_stval(), (r_scause() == 13)? 1 : 0) != 0) {
    80003c60:	ff360613          	addi	a2,a2,-13 # ff3 <_entry-0x7ffff00d>
    80003c64:	00163613          	seqz	a2,a2
    80003c68:	0504b503          	ld	a0,80(s1)
    80003c6c:	ffffe097          	auipc	ra,0xffffe
    80003c70:	52c080e7          	jalr	1324(ra) # 80002198 <vmfault>
  } else if((r_scause() == 15 || r_scause() == 13) &&
    80003c74:	f80518e3          	bnez	a0,80003c04 <usertrap+0xfc>
    80003c78:	f0dff06f          	j	80003b84 <usertrap+0x7c>
  if(killed(p))
    80003c7c:	00048513          	mv	a0,s1
    80003c80:	fffff097          	auipc	ra,0xfffff
    80003c84:	7d0080e7          	jalr	2000(ra) # 80003450 <killed>
    80003c88:	00050c63          	beqz	a0,80003ca0 <usertrap+0x198>
    80003c8c:	0080006f          	j	80003c94 <usertrap+0x18c>
    80003c90:	00000913          	li	s2,0
    kexit(-1);
    80003c94:	fff00513          	li	a0,-1
    80003c98:	fffff097          	auipc	ra,0xfffff
    80003c9c:	5c8080e7          	jalr	1480(ra) # 80003260 <kexit>
  if(which_dev == 2)
    80003ca0:	00200793          	li	a5,2
    80003ca4:	f6f918e3          	bne	s2,a5,80003c14 <usertrap+0x10c>
    yield();
    80003ca8:	fffff097          	auipc	ra,0xfffff
    80003cac:	3a0080e7          	jalr	928(ra) # 80003048 <yield>
    80003cb0:	f65ff06f          	j	80003c14 <usertrap+0x10c>

0000000080003cb4 <kerneltrap>:
{
    80003cb4:	fd010113          	addi	sp,sp,-48
    80003cb8:	02113423          	sd	ra,40(sp)
    80003cbc:	02813023          	sd	s0,32(sp)
    80003cc0:	00913c23          	sd	s1,24(sp)
    80003cc4:	01213823          	sd	s2,16(sp)
    80003cc8:	01313423          	sd	s3,8(sp)
    80003ccc:	03010413          	addi	s0,sp,48
  asm volatile("csrr %0, sepc" : "=r" (x) );
    80003cd0:	14102973          	csrr	s2,sepc
  asm volatile("csrr %0, sstatus" : "=r" (x) );
    80003cd4:	100024f3          	csrr	s1,sstatus
  asm volatile("csrr %0, scause" : "=r" (x) );
    80003cd8:	142029f3          	csrr	s3,scause
  if((sstatus & SSTATUS_SPP) == 0)
    80003cdc:	1004f793          	andi	a5,s1,256
    80003ce0:	04078463          	beqz	a5,80003d28 <kerneltrap+0x74>
  asm volatile("csrr %0, sstatus" : "=r" (x) );
    80003ce4:	100027f3          	csrr	a5,sstatus
  return (x & SSTATUS_SIE) != 0;
    80003ce8:	0027f793          	andi	a5,a5,2
  if(intr_get() != 0)
    80003cec:	04079663          	bnez	a5,80003d38 <kerneltrap+0x84>
  if((which_dev = devintr()) == 0){
    80003cf0:	00000097          	auipc	ra,0x0
    80003cf4:	d54080e7          	jalr	-684(ra) # 80003a44 <devintr>
    80003cf8:	04050863          	beqz	a0,80003d48 <kerneltrap+0x94>
  if(which_dev == 2 && myproc() != 0)
    80003cfc:	00200793          	li	a5,2
    80003d00:	06f50a63          	beq	a0,a5,80003d74 <kerneltrap+0xc0>
  asm volatile("csrw sepc, %0" : : "r" (x));
    80003d04:	14191073          	csrw	sepc,s2
  asm volatile("csrw sstatus, %0" : : "r" (x));
    80003d08:	10049073          	csrw	sstatus,s1
}
    80003d0c:	02813083          	ld	ra,40(sp)
    80003d10:	02013403          	ld	s0,32(sp)
    80003d14:	01813483          	ld	s1,24(sp)
    80003d18:	01013903          	ld	s2,16(sp)
    80003d1c:	00813983          	ld	s3,8(sp)
    80003d20:	03010113          	addi	sp,sp,48
    80003d24:	00008067          	ret
    panic("kerneltrap: not from supervisor mode");
    80003d28:	00006517          	auipc	a0,0x6
    80003d2c:	77850513          	addi	a0,a0,1912 # 8000a4a0 <states.0+0xd0>
    80003d30:	ffffd097          	auipc	ra,0xffffd
    80003d34:	d50080e7          	jalr	-688(ra) # 80000a80 <panic>
    panic("kerneltrap: interrupts enabled");
    80003d38:	00006517          	auipc	a0,0x6
    80003d3c:	79050513          	addi	a0,a0,1936 # 8000a4c8 <states.0+0xf8>
    80003d40:	ffffd097          	auipc	ra,0xffffd
    80003d44:	d40080e7          	jalr	-704(ra) # 80000a80 <panic>
  asm volatile("csrr %0, sepc" : "=r" (x) );
    80003d48:	14102673          	csrr	a2,sepc
  asm volatile("csrr %0, stval" : "=r" (x) );
    80003d4c:	143026f3          	csrr	a3,stval
    printf("scause=0x%lx sepc=0x%lx stval=0x%lx\n", scause, r_sepc(), r_stval());
    80003d50:	00098593          	mv	a1,s3
    80003d54:	00006517          	auipc	a0,0x6
    80003d58:	79450513          	addi	a0,a0,1940 # 8000a4e8 <states.0+0x118>
    80003d5c:	ffffd097          	auipc	ra,0xffffd
    80003d60:	94c080e7          	jalr	-1716(ra) # 800006a8 <printf>
    panic("kerneltrap");
    80003d64:	00006517          	auipc	a0,0x6
    80003d68:	7ac50513          	addi	a0,a0,1964 # 8000a510 <states.0+0x140>
    80003d6c:	ffffd097          	auipc	ra,0xffffd
    80003d70:	d14080e7          	jalr	-748(ra) # 80000a80 <panic>
  if(which_dev == 2 && myproc() != 0)
    80003d74:	fffff097          	auipc	ra,0xfffff
    80003d78:	974080e7          	jalr	-1676(ra) # 800026e8 <myproc>
    80003d7c:	f80504e3          	beqz	a0,80003d04 <kerneltrap+0x50>
    yield();
    80003d80:	fffff097          	auipc	ra,0xfffff
    80003d84:	2c8080e7          	jalr	712(ra) # 80003048 <yield>
    80003d88:	f7dff06f          	j	80003d04 <kerneltrap+0x50>

0000000080003d8c <argraw>:
  return strlen(buf);
}

static uint64
argraw(int n)
{
    80003d8c:	fe010113          	addi	sp,sp,-32
    80003d90:	00113c23          	sd	ra,24(sp)
    80003d94:	00813823          	sd	s0,16(sp)
    80003d98:	00913423          	sd	s1,8(sp)
    80003d9c:	02010413          	addi	s0,sp,32
    80003da0:	00050493          	mv	s1,a0
  struct proc *p = myproc();
    80003da4:	fffff097          	auipc	ra,0xfffff
    80003da8:	944080e7          	jalr	-1724(ra) # 800026e8 <myproc>
  switch (n) {
    80003dac:	00500793          	li	a5,5
    80003db0:	0697ec63          	bltu	a5,s1,80003e28 <argraw+0x9c>
    80003db4:	00249493          	slli	s1,s1,0x2
    80003db8:	00006717          	auipc	a4,0x6
    80003dbc:	79070713          	addi	a4,a4,1936 # 8000a548 <states.0+0x178>
    80003dc0:	00e484b3          	add	s1,s1,a4
    80003dc4:	0004a783          	lw	a5,0(s1)
    80003dc8:	00e787b3          	add	a5,a5,a4
    80003dcc:	00078067          	jr	a5
  case 0:
    return p->trapframe->a0;
    80003dd0:	05853783          	ld	a5,88(a0)
    80003dd4:	0707b503          	ld	a0,112(a5)
  case 5:
    return p->trapframe->a5;
  }
  panic("argraw");
  return -1;
}
    80003dd8:	01813083          	ld	ra,24(sp)
    80003ddc:	01013403          	ld	s0,16(sp)
    80003de0:	00813483          	ld	s1,8(sp)
    80003de4:	02010113          	addi	sp,sp,32
    80003de8:	00008067          	ret
    return p->trapframe->a1;
    80003dec:	05853783          	ld	a5,88(a0)
    80003df0:	0787b503          	ld	a0,120(a5)
    80003df4:	fe5ff06f          	j	80003dd8 <argraw+0x4c>
    return p->trapframe->a2;
    80003df8:	05853783          	ld	a5,88(a0)
    80003dfc:	0807b503          	ld	a0,128(a5)
    80003e00:	fd9ff06f          	j	80003dd8 <argraw+0x4c>
    return p->trapframe->a3;
    80003e04:	05853783          	ld	a5,88(a0)
    80003e08:	0887b503          	ld	a0,136(a5)
    80003e0c:	fcdff06f          	j	80003dd8 <argraw+0x4c>
    return p->trapframe->a4;
    80003e10:	05853783          	ld	a5,88(a0)
    80003e14:	0907b503          	ld	a0,144(a5)
    80003e18:	fc1ff06f          	j	80003dd8 <argraw+0x4c>
    return p->trapframe->a5;
    80003e1c:	05853783          	ld	a5,88(a0)
